
niosII_sigmadelta.elf:     file format elf32-littlenios2
niosII_sigmadelta.elf
architecture: nios2:r1, flags 0x00000112:
EXEC_P, HAS_SYMS, D_PAGED
start address 0x012001bc

Program Header:
    LOAD off    0x00001000 vaddr 0x00800000 paddr 0x00800000 align 2**12
         filesz 0x00000000 memsz 0x00000000 flags r-x
    LOAD off    0x00001020 vaddr 0x01200020 paddr 0x01200020 align 2**12
         filesz 0x000221a8 memsz 0x0002568c flags rwx

Sections:
Idx Name          Size      VMA       LMA       File off  Algn
  0 .entry        00000000  00800000  00800000  00001000  2**5
                  CONTENTS, ALLOC, LOAD, READONLY, CODE
  1 .exceptions   0000019c  01200020  01200020  00001020  2**2
                  CONTENTS, ALLOC, LOAD, READONLY, CODE
  2 .text         0001fb84  012001bc  012001bc  000011bc  2**2
                  CONTENTS, ALLOC, LOAD, READONLY, CODE
  3 .rodata       00000804  0121fd40  0121fd40  00020d40  2**2
                  CONTENTS, ALLOC, LOAD, READONLY, DATA
  4 .rwdata       00001c84  01220544  01220544  00021544  2**2
                  CONTENTS, ALLOC, LOAD, DATA, SMALL_DATA
  5 .bss          000034e4  012221c8  012221c8  000231c8  2**2
                  ALLOC, SMALL_DATA
  6 .ext_flash_ctl 00000000  00800020  00800020  000231c8  2**0
                  CONTENTS
  7 .ext_ram_ctl  00000000  012256ac  012256ac  000231c8  2**0
                  CONTENTS
  8 .instruction_tcm 00000000  02000000  02000000  000231c8  2**0
                  CONTENTS
  9 .comment      00000023  00000000  00000000  000231c8  2**0
                  CONTENTS, READONLY
 10 .debug_aranges 00001158  00000000  00000000  000231f0  2**3
                  CONTENTS, READONLY, DEBUGGING
 11 .debug_info   00038987  00000000  00000000  00024348  2**0
                  CONTENTS, READONLY, DEBUGGING
 12 .debug_abbrev 0000d1de  00000000  00000000  0005cccf  2**0
                  CONTENTS, READONLY, DEBUGGING
 13 .debug_line   00010fc8  00000000  00000000  00069ead  2**0
                  CONTENTS, READONLY, DEBUGGING
 14 .debug_frame  00003b48  00000000  00000000  0007ae78  2**2
                  CONTENTS, READONLY, DEBUGGING
 15 .debug_str    0000513a  00000000  00000000  0007e9c0  2**0
                  CONTENTS, READONLY, DEBUGGING
 16 .debug_loc    0001e16a  00000000  00000000  00083afa  2**0
                  CONTENTS, READONLY, DEBUGGING
 17 .debug_alt_sim_info 00000050  00000000  00000000  000a1c64  2**2
                  CONTENTS, READONLY, DEBUGGING
 18 .debug_ranges 00001740  00000000  00000000  000a1cb8  2**3
                  CONTENTS, READONLY, DEBUGGING
 19 .thread_model 00000006  00000000  00000000  000a8902  2**0
                  CONTENTS, READONLY
 20 .cpu          00000003  00000000  00000000  000a8908  2**0
                  CONTENTS, READONLY
 21 .qsys         00000001  00000000  00000000  000a890b  2**0
                  CONTENTS, READONLY
 22 .simulation_enabled 00000001  00000000  00000000  000a890c  2**0
                  CONTENTS, READONLY
 23 .sysid_hash   00000004  00000000  00000000  000a890d  2**0
                  CONTENTS, READONLY
 24 .sysid_base   00000004  00000000  00000000  000a8911  2**0
                  CONTENTS, READONLY
 25 .sysid_time   00000004  00000000  00000000  000a8915  2**0
                  CONTENTS, READONLY
 26 .stderr_dev   00000009  00000000  00000000  000a8919  2**0
                  CONTENTS, READONLY
 27 .stdin_dev    00000009  00000000  00000000  000a8922  2**0
                  CONTENTS, READONLY
 28 .stdout_dev   00000009  00000000  00000000  000a892b  2**0
                  CONTENTS, READONLY
 29 .sopc_system_name 00000006  00000000  00000000  000a8934  2**0
                  CONTENTS, READONLY
 30 .jdi          00003510  00000000  00000000  000a893a  2**0
                  CONTENTS, READONLY
 31 .sopcinfo     00078330  00000000  00000000  000abe4a  2**0
                  CONTENTS, READONLY
SYMBOL TABLE:
00800000 l    d  .entry	00000000 .entry
01200020 l    d  .exceptions	00000000 .exceptions
012001bc l    d  .text	00000000 .text
0121fd40 l    d  .rodata	00000000 .rodata
01220544 l    d  .rwdata	00000000 .rwdata
012221c8 l    d  .bss	00000000 .bss
00800020 l    d  .ext_flash_ctl	00000000 .ext_flash_ctl
012256ac l    d  .ext_ram_ctl	00000000 .ext_ram_ctl
02000000 l    d  .instruction_tcm	00000000 .instruction_tcm
00000000 l    d  .comment	00000000 .comment
00000000 l    d  .debug_aranges	00000000 .debug_aranges
00000000 l    d  .debug_info	00000000 .debug_info
00000000 l    d  .debug_abbrev	00000000 .debug_abbrev
00000000 l    d  .debug_line	00000000 .debug_line
00000000 l    d  .debug_frame	00000000 .debug_frame
00000000 l    d  .debug_str	00000000 .debug_str
00000000 l    d  .debug_loc	00000000 .debug_loc
00000000 l    d  .debug_alt_sim_info	00000000 .debug_alt_sim_info
00000000 l    d  .debug_ranges	00000000 .debug_ranges
00000000 l    df *ABS*	00000000 ../niosII_bsp//obj/HAL/src/crt0.o
01200200 l       .text	00000000 alt_after_alt_main
00000000 l    df *ABS*	00000000 alt_exception_entry.o
01200094 l       .exceptions	00000000 alt_exception_unknown
00000000 l    df *ABS*	00000000 alt_irq_handler.c
00000000 l    df *ABS*	00000000 pwm.c
00000000 l    df *ABS*	00000000 fgets.c
00000000 l    df *ABS*	00000000 findfp.c
012004d8 l     F .text	00000008 __fp_lock
012004e0 l     F .text	00000008 __fp_unlock
012004f4 l     F .text	000001a0 __sinit.part.1
00000000 l    df *ABS*	00000000 fwalk.c
00000000 l    df *ABS*	00000000 impure.c
01220544 l     O .rwdata	00000424 impure_data
00000000 l    df *ABS*	00000000 mallocr.c
00000000 l    df *ABS*	00000000 memchr.c
00000000 l    df *ABS*	00000000 memcpy.c
00000000 l    df *ABS*	00000000 memset.c
00000000 l    df *ABS*	00000000 puts.c
00000000 l    df *ABS*	00000000 refill.c
012015a0 l     F .text	0000001c lflush
00000000 l    df *ABS*	00000000 sbrkr.c
00000000 l    df *ABS*	00000000 sscanf.c
00000000 l    df *ABS*	00000000 stdio.c
00000000 l    df *ABS*	00000000 strlen.c
00000000 l    df *ABS*	00000000 vfscanf.c
0121fdfe l     O .rodata	00000022 basefix.4082
00000000 l    df *ABS*	00000000 writer.c
00000000 l    df *ABS*	00000000 closer.c
00000000 l    df *ABS*	00000000 ctype_.c
0121ff21 l     O .rodata	00000180 _ctype_b
00000000 l    df *ABS*	00000000 fclose.c
00000000 l    df *ABS*	00000000 fflush.c
00000000 l    df *ABS*	00000000 mallocr.c
00000000 l    df *ABS*	00000000 fvwrite.c
00000000 l    df *ABS*	00000000 int_errno.c
00000000 l    df *ABS*	00000000 iswspace.c
00000000 l    df *ABS*	00000000 locale.c
01220d90 l     O .rwdata	00000020 lc_ctype_charset
01220d70 l     O .rwdata	00000020 lc_message_charset
01220db0 l     O .rwdata	00000038 lconv
00000000 l    df *ABS*	00000000 lseekr.c
00000000 l    df *ABS*	00000000 makebuf.c
00000000 l    df *ABS*	00000000 mbrtowc.c
00000000 l    df *ABS*	00000000 mbtowc_r.c
00000000 l    df *ABS*	00000000 memmove.c
00000000 l    df *ABS*	00000000 readr.c
00000000 l    df *ABS*	00000000 mallocr.c
00000000 l    df *ABS*	00000000 s_fpclassify.c
00000000 l    df *ABS*	00000000 sccl.c
00000000 l    df *ABS*	00000000 sf_nan.c
00000000 l    df *ABS*	00000000 sprintf.c
00000000 l    df *ABS*	00000000 strcmp.c
00000000 l    df *ABS*	00000000 strtod.c
01220dfc l     O .rwdata	00000014 fpi.2638
012200c0 l     O .rodata	00000028 tinytens
01220de8 l     O .rwdata	00000014 fpinan.2674
00000000 l    df *ABS*	00000000 strtol.c
00000000 l    df *ABS*	00000000 strtoll_r.c
00000000 l    df *ABS*	00000000 strtoul.c
00000000 l    df *ABS*	00000000 strtoull_r.c
00000000 l    df *ABS*	00000000 vfscanf.c
012200e8 l     O .rodata	00000022 basefix.3580
00000000 l    df *ABS*	00000000 vfprintf.c
0122014e l     O .rodata	00000010 zeroes.4166
0122015e l     O .rodata	00000010 blanks.4165
00000000 l    df *ABS*	00000000 ungetc.c
00000000 l    df *ABS*	00000000 wsetup.c
00000000 l    df *ABS*	00000000 dtoa.c
0120a648 l     F .text	00000200 quorem
00000000 l    df *ABS*	00000000 fstatr.c
00000000 l    df *ABS*	00000000 gdtoa-gethex.c
0120bfc8 l     F .text	00000100 rshift
00000000 l    df *ABS*	00000000 gdtoa-hexnan.c
00000000 l    df *ABS*	00000000 isattyr.c
00000000 l    df *ABS*	00000000 mprec.c
0122019c l     O .rodata	0000000c p05.2678
00000000 l    df *ABS*	00000000 strncmp.c
00000000 l    df *ABS*	00000000 vfprintf.c
012202c0 l     O .rodata	00000010 zeroes.4110
012202d0 l     O .rodata	00000010 blanks.4109
00000000 l    df *ABS*	00000000 mallocr.c
00000000 l    df *ABS*	00000000 libgcc2.c
00000000 l    df *ABS*	00000000 libgcc2.c
00000000 l    df *ABS*	00000000 libgcc2.c
00000000 l    df *ABS*	00000000 libgcc2.c
00000000 l    df *ABS*	00000000 lib2-divmod.c
0120fbb4 l     F .text	0000006c udivmodsi4
00000000 l    df *ABS*	00000000 eqsf2.c
00000000 l    df *ABS*	00000000 gesf2.c
00000000 l    df *ABS*	00000000 lesf2.c
00000000 l    df *ABS*	00000000 adddf3.c
00000000 l    df *ABS*	00000000 divdf3.c
00000000 l    df *ABS*	00000000 eqdf2.c
00000000 l    df *ABS*	00000000 gedf2.c
00000000 l    df *ABS*	00000000 ledf2.c
00000000 l    df *ABS*	00000000 muldf3.c
00000000 l    df *ABS*	00000000 subdf3.c
00000000 l    df *ABS*	00000000 fixdfsi.c
00000000 l    df *ABS*	00000000 floatsidf.c
00000000 l    df *ABS*	00000000 floatunsidf.c
00000000 l    df *ABS*	00000000 truncdfsf2.c
00000000 l    df *ABS*	00000000 libgcc2.c
00000000 l    df *ABS*	00000000 libgcc2.c
00000000 l    df *ABS*	00000000 alt_close.c
0121265c l     F .text	00000050 alt_get_errno
00000000 l    df *ABS*	00000000 alt_dev.c
0121277c l     F .text	0000002c alt_dev_null_write
00000000 l    df *ABS*	00000000 alt_errno.c
00000000 l    df *ABS*	00000000 alt_fstat.c
012127a8 l     F .text	00000050 alt_get_errno
00000000 l    df *ABS*	00000000 alt_isatty.c
012128a8 l     F .text	00000050 alt_get_errno
00000000 l    df *ABS*	00000000 alt_lseek.c
0121299c l     F .text	00000050 alt_get_errno
00000000 l    df *ABS*	00000000 alt_main.c
00000000 l    df *ABS*	00000000 alt_read.c
01212b94 l     F .text	00000050 alt_get_errno
00000000 l    df *ABS*	00000000 alt_release_fd.c
00000000 l    df *ABS*	00000000 alt_sbrk.c
01222134 l     O .rwdata	00000004 heap_end
00000000 l    df *ABS*	00000000 alt_write.c
01212df0 l     F .text	00000050 alt_get_errno
00000000 l    df *ABS*	00000000 alt_env_lock.c
01222138 l     O .rwdata	00000004 lockid
012221f4 l     O .bss	00000004 locks
00000000 l    df *ABS*	00000000 alt_malloc_lock.c
0122213c l     O .rwdata	00000004 lockid
012221fc l     O .bss	00000004 locks
00000000 l    df *ABS*	00000000 os_core.c
01214824 l     F .text	00000044 OS_InitMisc
01214868 l     F .text	00000068 OS_InitRdyList
012149c8 l     F .text	000000e0 OS_InitTCBList
01214748 l     F .text	000000dc OS_InitEventList
012148d0 l     F .text	0000007c OS_InitTaskIdle
0121494c l     F .text	0000007c OS_InitTaskStat
01214c28 l     F .text	00000070 OS_SchedNew
00000000 l    df *ABS*	00000000 os_dbg.c
00000000 l    df *ABS*	00000000 os_flag.c
01216a1c l     F .text	00000110 OS_FlagTaskRdy
01216774 l     F .text	000001c4 OS_FlagBlock
00000000 l    df *ABS*	00000000 os_mem.c
00000000 l    df *ABS*	00000000 os_q.c
00000000 l    df *ABS*	00000000 os_sem.c
00000000 l    df *ABS*	00000000 os_task.c
00000000 l    df *ABS*	00000000 os_time.c
00000000 l    df *ABS*	00000000 alt_sys_init.c
0121aeb8 l     F .text	00000038 alt_dev_reg
01220fb8 l     O .rwdata	000000dc ext_flash_ctl
01221094 l     O .rwdata	0000106c jtag_uart
00000000 l    df *ABS*	00000000 altera_avalon_cfi_flash.c
0121afa0 l     F .text	00000038 alt_flash_device_register
00000000 l    df *ABS*	00000000 altera_avalon_cfi_flash_table.c
0121bddc l     F .text	00000080 alt_read_16bit_query_entry
00000000 l    df *ABS*	00000000 altera_avalon_jtag_uart_fd.c
00000000 l    df *ABS*	00000000 altera_avalon_jtag_uart_init.c
0121cf30 l     F .text	000002a4 altera_avalon_jtag_uart_irq
0121d1d4 l     F .text	00000110 altera_avalon_jtag_uart_timeout
00000000 l    df *ABS*	00000000 altera_avalon_jtag_uart_ioctl.c
00000000 l    df *ABS*	00000000 altera_avalon_jtag_uart_read.c
00000000 l    df *ABS*	00000000 altera_avalon_jtag_uart_write.c
00000000 l    df *ABS*	00000000 altera_avalon_timer_sc.c
0121d9ac l     F .text	00000074 alt_avalon_timer_sc_irq
00000000 l    df *ABS*	00000000 alt_alarm_start.c
00000000 l    df *ABS*	00000000 alt_dcache_flush.c
00000000 l    df *ABS*	00000000 alt_dev_llist_insert.c
0121dc5c l     F .text	00000050 alt_get_errno
00000000 l    df *ABS*	00000000 alt_do_ctors.c
00000000 l    df *ABS*	00000000 alt_do_dtors.c
00000000 l    df *ABS*	00000000 alt_flash_dev.c
00000000 l    df *ABS*	00000000 alt_iic.c
00000000 l    df *ABS*	00000000 alt_iic_isr_register.c
00000000 l    df *ABS*	00000000 alt_io_redirect.c
0121e190 l     F .text	000000c0 alt_open_fd
00000000 l    df *ABS*	00000000 alt_irq_vars.c
00000000 l    df *ABS*	00000000 alt_open.c
0121e2c8 l     F .text	00000050 alt_get_errno
0121e318 l     F .text	000000cc alt_file_locked
00000000 l    df *ABS*	00000000 alt_tick.c
00000000 l    df *ABS*	00000000 altera_nios2_qsys_irq.c
00000000 l    df *ABS*	00000000 os_cpu_a.o
00000040 l       *ABS*	00000000 OSCtxSw_SWITCH_PC
00000000 l    df *ABS*	00000000 os_cpu_c.c
00000014 l       *ABS*	00000000 OSTCBNext_OFFSET
00000032 l       *ABS*	00000000 OSTCBPrio_OFFSET
00000000 l       *ABS*	00000000 OSTCBStkPtr_OFFSET
00000000 l    df *ABS*	00000000 altera_avalon_cfi_flash_amd.c
0121ef58 l     F .text	000000cc alt_write_word_amd
0121ee3c l     F .text	0000011c alt_wait_for_command_to_complete_amd
00000000 l    df *ABS*	00000000 altera_avalon_cfi_flash_intel.c
0121f22c l     F .text	00000178 alt_unlock_block_intel
0121f3a4 l     F .text	000000d4 alt_write_word_intel
00000000 l    df *ABS*	00000000 alt_find_dev.c
00000000 l    df *ABS*	00000000 alt_find_file.c
00000000 l    df *ABS*	00000000 alt_get_fd.c
00000000 l    df *ABS*	00000000 alt_usleep.c
00000000 l    df *ABS*	00000000 alt_busy_sleep.c
00000000 l    df *ABS*	00000000 atexit.c
00000000 l    df *ABS*	00000000 exit.c
00000000 l    df *ABS*	00000000 memcmp.c
00000000 l    df *ABS*	00000000 __atexit.c
00000000 l    df *ABS*	00000000 __call_atexit.c
00000000 l    df *ABS*	00000000 alt_exit.c
0120da64 g     F .text	00000074 _mprec_log10
0122218a g     O .rwdata	00000002 OSTaskNameSize
0120db50 g     F .text	0000008c __any_on
0120cbfc g     F .text	00000054 _isatty_r
012201a8 g     O .rodata	00000028 __mprec_tinytens
01212ac0 g     F .text	000000d4 alt_main
012014d4 g     F .text	000000b8 _puts_r
0121b8a8 g     F .text	00000040 alt_read_query_entry_32bit
012255ac g     O .bss	00000100 alt_irq
01203fcc g     F .text	0000005c _lseek_r
01217280 g     F .text	000000d0 OS_MemInit
0121b068 g     F .text	000002a8 alt_flash_cfi_write
0121ae54 g     F .text	00000064 OSTimeSet
0121102c g     F .text	00000084 .hidden __eqdf2
012134a0 g     F .text	00000610 OSEventPendMulti
012256ac g       *ABS*	00000000 __alt_heap_start
0121eabc g     F .text	00000020 OSTaskCreateHook
01222162 g     O .rwdata	00000002 OSMboxEn
01213b04 g     F .text	0000007c OSIntEnter
01201984 g     F .text	0000005c __sseek
01200828 g     F .text	00000010 __sinit
01222172 g     O .rwdata	00000002 OSQEn
01203eec g     F .text	0000007c _setlocale_r
01200694 g     F .text	00000064 __sfmoreglue
0120a4fc g     F .text	0000001c ungetc
01213174 g     F .text	000000d0 __malloc_unlock
0121eb18 g     F .text	0000001c OSTaskStatHook
01222204 g     O .bss	00000001 OSLockNesting
01204e18 g     F .text	00001540 _strtod_r
012221b0 g     O .rwdata	00000002 OSDataSize
01222205 g     O .bss	00000001 OSRunning
01207178 g     F .text	000000f4 _sfread_r
0120441c g     F .text	0000015c memmove
0121eb50 g     F .text	0000001c OSInitHookBegin
012221a8 g     O .rwdata	00000002 OSTmrSize
01200810 g     F .text	00000018 _cleanup
0120cc50 g     F .text	000000a8 _Balloc
01222208 g     O .bss	00000004 OSIdleCtr
012110b0 g     F .text	000000e0 .hidden __gtdf2
0121e7a4 g       .text	00000000 OSStartTsk
00000000  w      *UND*	00000000 __errno
02000000 g       *ABS*	00000000 __alt_mem_instruction_tcm
01214f50 g     F .text	000002d4 OS_TCBInit
0121ba40 g     F .text	00000050 alt_write_flash_command_32bit_device_16bit_mode
00800000 g     F .entry	00000000 __reset
012221ae g     O .rwdata	00000002 OSTmrWheelTblSize
0122214e g     O .rwdata	00000002 OSEventSize
0122220c g     O .bss	00000001 OSPrioHighRdy
0120bf70 g     F .text	00000058 _fstat_r
0121eadc g     F .text	00000020 OSTaskDelHook
0121b558 g     F .text	000002d4 alt_flash_program_block
012221d4 g     O .bss	00000004 errno
01201900 g     F .text	00000008 __seofread
0121e784 g       .text	00000000 OSStartHighRdy
01219764 g     F .text	000001ec OSTaskCreateExt
0120de64 g     F .text	00001068 ___svfiprintf_internal_r
012162c0 g     F .text	00000068 OSFlagPendGetFlagsRdy
0122218e g     O .rwdata	00000002 OSTaskStatStkSize
012153b0 g     F .text	00000308 OSFlagAccept
01217954 g     F .text	000000b8 OSQFlush
01217350 g     F .text	00000140 OSQAccept
012221ec g     O .bss	00000004 alt_argv
0122a100 g       *ABS*	00000000 _gp
0121f718 g     F .text	00000124 usleep
012195a8 g     F .text	000001bc OSTaskCreate
01219068 g     F .text	00000540 OSTaskChangePrio
01222200 g     O .bss	00000004 alt_heapsem
01215224 g     F .text	0000018c OSDebugInit
01219950 g     F .text	000003e0 OSTaskDel
012004b4 g     F .text	00000024 fgets
01220e38 g     O .rwdata	00000180 alt_fd_list
01222388 g     O .bss	00000370 OSFlagTbl
01214534 g     F .text	000000b4 OS_EventTaskRemove
0121f478 g     F .text	00000090 alt_find_dev
01201278 g     F .text	00000138 memcpy
0120c968 g     F .text	00000294 __hexnan
01222178 g     O .rwdata	00000002 OSRdyTblSize
012004e8 g     F .text	0000000c _cleanup_r
012122ec g     F .text	000000d0 .hidden __floatsidf
0121e250 g     F .text	00000078 alt_io_redirect
01211190 g     F .text	000000e0 .hidden __ltdf2
01200000 g       *ABS*	00000000 __alt_mem_ext_ram_ctl
0121fd40 g       *ABS*	00000000 __DTOR_END__
0120158c g     F .text	00000014 puts
01213244 g     F .text	00000120 OSEventNameGet
0122215c g     O .rwdata	00000002 OSFlagMax
0120428c g     F .text	000000f0 mbrtowc
01204b74 g     F .text	00000074 __fpclassifyd
0120d9c0 g     F .text	000000a4 __ratio
01213b80 g     F .text	000000f4 OSIntExit
01222196 g     O .rwdata	00000002 OSTCBSize
0122220d g     O .bss	00000001 OSPrioCur
0121d438 g     F .text	000002b4 altera_avalon_jtag_uart_read
00000000  w      *UND*	00000000 malloc
0120fcd0 g     F .text	00000008 .hidden __udivsi3
012128f8 g     F .text	000000a4 isatty
0122217c g     O .rwdata	00000002 OSStkWidth
01203ebc g     F .text	00000030 iswspace
012201f8 g     O .rodata	000000c8 __mprec_tens
01222170 g     O .rwdata	00000002 OSPtrSize
01203f68 g     F .text	0000000c __locale_charset
0120fe0c g     F .text	000000b8 .hidden __lesf2
01222150 g     O .rwdata	00000002 OSEventTblSize
0120eff0 g     F .text	00000074 .hidden __fixunsdfsi
0121e6f8 g       .text	00000000 OSCtxSw
012221d0 g     O .bss	00000004 __malloc_top_pad
01207108 g     F .text	00000070 __ssrefill_r
01222210 g     O .bss	00000004 OSTCBList
012221e4 g     O .bss	00000004 alt_fd_list_lock
01206c98 g     F .text	00000024 strtoul
01222114 g     O .rwdata	00000004 __mb_cur_max
01203f98 g     F .text	0000000c _localeconv_r
01206cbc g     F .text	00000354 _strtoull_r
0120d050 g     F .text	0000003c __i2b
01203a18 g     F .text	000004a4 __sfvwrite_r
012226f8 g     O .bss	00000c30 OSMemTbl
01222214 g     O .bss	00000001 OSTickStepState
01201764 g     F .text	00000054 _sbrk_r
0121f024 g     F .text	00000080 alt_program_intel
01222174 g     O .rwdata	00000002 OSQMax
01223328 g     O .bss	00000800 OSTaskStatStk
01216eb0 g     F .text	000000f8 OSMemNameGet
01222154 g     O .rwdata	00000002 OSFlagEn
01204578 g     F .text	0000005c _read_r
0122219a g     O .rwdata	00000002 OSTimeTickHookEn
0121dbe8 g     F .text	00000074 alt_dcache_flush
01217e74 g     F .text	00000168 OSQPost
01216b2c g     F .text	000000a0 OS_FlagUnlink
0122212c g     O .rwdata	00000004 alt_max_fd
0121b82c g     F .text	0000003c alt_read_query_entry_8bit
01214af8 g     F .text	00000064 OS_MemCopy
01214b5c g     F .text	000000cc OS_Sched
01203298 g     F .text	00000100 _fclose_r
01216dc0 g     F .text	000000f0 OSMemGet
0121a030 g     F .text	000001c0 OSTaskNameSet
0121f0a4 g     F .text	00000188 alt_erase_block_intel
012035d4 g     F .text	00000030 fflush
012221cc g     O .bss	00000004 __malloc_max_sbrked_mem
01222218 g     O .bss	00000004 OSCtxSwCtr
0121eb34 g     F .text	0000001c OSTimeTickHook
0122215e g     O .rwdata	00000002 OSFlagNameSize
01201a80 g     F .text	00001768 __ssvfscanf_r
012145e8 g     F .text	000000fc OS_EventTaskRemoveMulti
0120fec4 g     F .text	0000089c .hidden __adddf3
0120fce0 g     F .text	00000074 .hidden __nesf2
012143e8 g     F .text	0000014c OS_EventTaskWaitMulti
0120d768 g     F .text	0000011c __b2d
01222176 g     O .rwdata	00000002 OSQSize
0120f624 g     F .text	00000590 .hidden __umoddi3
012129ec g     F .text	000000d4 lseek
01218978 g     F .text	00000268 OSSemPend
01222100 g     O .rwdata	00000004 _global_impure_ptr
012045d4 g     F .text	000005a0 _realloc_r
01222160 g     O .rwdata	00000002 OSLowestPrio
012256ac g       *ABS*	00000000 __bss_end
0121e0a0 g     F .text	000000f0 alt_iic_isr_register
0121eba4 g     F .text	00000020 OSTCBInitHook
012221a6 g     O .rwdata	00000002 OSTmrCfgTicksPerSec
0121e5d4 g     F .text	00000104 alt_tick
01222288 g     O .bss	00000100 __hexdig
0120f064 g     F .text	000005c0 .hidden __udivdi3
01222148 g     O .rwdata	00000002 OSEventEn
012201d0 g     O .rodata	00000028 __mprec_bigtens
0120ce34 g     F .text	00000104 __s2b
012221a2 g     O .rwdata	00000002 OSTmrCfgNameSize
012123bc g     F .text	000000a4 .hidden __floatunsidf
0120d510 g     F .text	00000060 __mcmp
01200848 g     F .text	00000018 __fp_lock_all
0121e054 g     F .text	0000004c alt_ic_irq_enabled
01216938 g     F .text	000000e4 OS_FlagInit
0121e53c g     F .text	00000098 alt_alarm_stop
012066d8 g     F .text	00000024 strtol
01222184 g     O .rwdata	00000002 OSTaskIdleStkSize
01222254 g     O .bss	00000004 alt_irq_active
01218560 g     F .text	000000b0 OSSemAccept
012170c0 g     F .text	000000d8 OSMemPut
01216bcc g     F .text	000001f4 OSMemCreate
0122221c g     O .bss	00000004 OSIdleCtrMax
012000ec g     F .exceptions	000000d0 alt_irq_handler
01220e10 g     O .rwdata	00000028 alt_dev_null
01222198 g     O .rwdata	00000002 OSTicksPerSec
0121bd40 g     F .text	0000009c alt_set_flash_algorithm_func
0121e6f8 g       .text	00000000 OSIntCtxSw
0120cf38 g     F .text	00000068 __hi0bits
01212264 g     F .text	00000088 .hidden __fixdfsi
0121b8e8 g     F .text	00000044 alt_write_flash_command_8bit_device_8bit_mode
01206358 g     F .text	0000001c strtod
01222220 g     O .bss	00000004 OSTCBFreeList
01218be0 g     F .text	0000016c OSSemPendAbort
01222124 g     O .rwdata	00000008 alt_dev_list
01212e40 g     F .text	000000f8 write
0122219c g     O .rwdata	00000002 OSVersionNbr
0120fd54 g     F .text	000000b8 .hidden __gtsf2
012127f8 g     F .text	000000b0 fstat
01211190 g     F .text	000000e0 .hidden __ledf2
0121cba8 g     F .text	000000d8 alt_check_primary_table
01222144 g     O .rwdata	00000004 OSEndiannessTest
0120d288 g     F .text	00000140 __pow5mult
012221e0 g     O .bss	00000004 __nlocale_changed
0120fcd8 g     F .text	00000008 .hidden __umodsi3
0121b39c g     F .text	00000064 alt_flash_cfi_read
0121bae0 g     F .text	00000038 alt_write_native_8bit
01222156 g     O .rwdata	00000002 OSFlagGrpSize
012256ac g       *ABS*	00000000 end
0121b92c g     F .text	00000078 alt_write_flash_command_16bit_device_8bit_mode
0121be5c g     F .text	000005c8 alt_read_cfi_table
0121cde4 g     F .text	0000014c altera_avalon_jtag_uart_init
01214dbc g     F .text	000000cc OS_TaskStat
0121fd40 g       *ABS*	00000000 __CTOR_LIST__
01400000 g       *ABS*	00000000 __alt_stack_pointer
0121da20 g     F .text	00000088 alt_avalon_timer_sc_init
012125f8 g     F .text	00000064 .hidden __clzsi2
0121d6ec g     F .text	000002c0 altera_avalon_jtag_uart_write
0121afd8 g     F .text	00000090 alt_flash_cfi_init
01200838 g     F .text	00000004 __sfp_lock_acquire
01201190 g     F .text	000000e8 memchr
01214aa8 g     F .text	00000050 OS_MemClr
0121e7c8 g     F .text	000002f4 OSTaskStkInit
01204cb0 g     F .text	00000058 _sprintf_r
01203728 g     F .text	000002f0 _free_r
01203f74 g     F .text	00000010 __locale_mb_cur_max
01214144 g     F .text	00000198 OS_EventTaskRdy
0121fb70 g     F .text	00000194 __call_exitprocs
01222224 g     O .bss	00000001 OSCPUUsage
01207010 g     F .text	000000f8 _sungetc_r
012221dc g     O .bss	00000004 __mlocale_changed
01222108 g     O .rwdata	00000004 __malloc_sbrk_base
012001bc g     F .text	00000048 _start
01222258 g     O .bss	00000004 _alt_tick_rate
01217a0c g     F .text	000002fc OSQPend
012066fc g     F .text	00000314 _strtoll_r
0121a95c g     F .text	00000148 OSTimeDly
0120d3c8 g     F .text	00000148 __lshift
0122225c g     O .bss	00000004 _alt_nticks
01212be4 g     F .text	000000fc read
0121af24 g     F .text	0000007c alt_sys_init
0120dc9c g     F .text	000001c8 __ssprint_r
0121fa5c g     F .text	00000114 __register_exitproc
01222225 g     O .bss	00000001 OSTaskCtr
0120dbdc g     F .text	000000c0 strncmp
0121b868 g     F .text	00000040 alt_read_query_entry_16bit
0121aaa4 g     F .text	0000015c OSTimeDlyHMSM
0120d08c g     F .text	000001fc __multiply
0121d2e4 g     F .text	00000068 altera_avalon_jtag_uart_close
00800000 g       *ABS*	00000000 __alt_mem_ext_flash_ctl
01222260 g     O .bss	00000028 __malloc_current_mallinfo
0122214a g     O .rwdata	00000002 OSEventMax
0120fce0 g     F .text	00000074 .hidden __eqsf2
0121bb84 g     F .text	000001bc alt_set_flash_width_func
0120d884 g     F .text	0000013c __d2b
01218d4c g     F .text	00000110 OSSemPost
01213cfc g     F .text	000000d8 OSSchedUnlock
0121cc80 g     F .text	00000060 altera_avalon_jtag_uart_read_fd
01206a10 g     F .text	00000288 _strtoul_r
0121f61c g     F .text	000000fc alt_get_fd
01222228 g     O .bss	00000004 OSMemFreeList
01213e40 g     F .text	000000ac OSStatInit
0121f83c g     F .text	00000158 alt_busy_sleep
012166b0 g     F .text	000000c4 OSFlagQuery
01222180 g     O .rwdata	00000002 OSTaskCreateExtEn
01203244 g     F .text	00000054 _close_r
0121ec2c g     F .text	00000210 alt_erase_block_amd
0121f9e0 g     F .text	0000007c memcmp
01214128 g     F .text	0000001c OS_Dummy
0121cd40 g     F .text	00000050 altera_avalon_jtag_uart_close_fd
012256ac g       *ABS*	00000000 __alt_stack_base
0121cd90 g     F .text	00000054 altera_avalon_jtag_uart_ioctl_fd
012017b8 g     F .text	0000007c sscanf
0120a518 g     F .text	00000130 __swsetup_r
0121c424 g     F .text	00000784 alt_read_cfi_width
01223b28 g     O .bss	000001e0 OSQTbl
01210760 g     F .text	000008cc .hidden __divdf3
012006f8 g     F .text	00000118 __sfp
0120dad8 g     F .text	00000078 __copybits
01220968 g     O .rwdata	00000408 __malloc_av_
01200844 g     F .text	00000004 __sinit_lock_release
0122222c g     O .bss	00000004 OSTCBHighRdy
01211270 g     F .text	00000724 .hidden __muldf3
012018ac g     F .text	00000054 __sread
01222230 g     O .bss	00000004 OSQFreeList
0121f508 g     F .text	00000114 alt_find_file
0121dcac g     F .text	000000a4 alt_dev_llist_insert
01213054 g     F .text	00000120 __malloc_lock
01212d40 g     F .text	000000b0 sbrk
01208310 g     F .text	00001f90 ___svfprintf_internal_r
01213364 g     F .text	0000013c OSEventNameSet
012033ac g     F .text	00000228 _fflush_r
0120eecc g     F .text	000000c4 _calloc_r
01222234 g     O .bss	00000001 OSRdyGrp
012221b4 g     O .rwdata	00000008 alt_flash_dev_list
0121b9f4 g     F .text	0000004c alt_write_flash_command_16bit_device_16bit_mode
012221c8 g       *ABS*	00000000 __bss_start
012013b0 g     F .text	00000124 memset
01200204 g     F .text	0000015c main
012221f0 g     O .bss	00000004 alt_envp
012221c8 g     O .bss	00000004 __malloc_max_total_mem
0121cce0 g     F .text	00000060 altera_avalon_jtag_uart_write_fd
012203fc g     O .rodata	00000100 OSUnMapTbl
0120fe0c g     F .text	000000b8 .hidden __ltsf2
0122217a g     O .rwdata	00000002 OSSemEn
01216328 g     F .text	00000388 OSFlagPost
012019e0 g     F .text	00000008 __sclose
01400000 g       *ABS*	00000000 __alt_heap_limit
01203398 g     F .text	00000014 fclose
012142dc g     F .text	0000010c OS_EventTaskWait
01206478 g     F .text	00000260 _strtol_r
01212460 g     F .text	00000198 .hidden __truncdfsf2
01214e88 g     F .text	000000c8 OS_TaskStatStkChk
01219d30 g     F .text	00000158 OSTaskDelReq
0120a848 g     F .text	00001728 _dtoa_r
012009e8 g     F .text	000007a8 _malloc_r
01222130 g     O .rwdata	00000004 alt_errno
01213dd4 g     F .text	0000006c OSStart
0120a2a0 g     F .text	000000d4 __submore
0121ba90 g     F .text	00000050 alt_write_flash_command_32bit_device_32bit_mode
01212ff8 g     F .text	0000005c __env_unlock
01200878 g     F .text	000000b8 _fwalk
0121a1f0 g     F .text	000001f8 OSTaskResume
01217198 g     F .text	000000e8 OSMemQuery
0122218c g     O .rwdata	00000002 OSTaskStatEn
01200360 g     F .text	00000154 _fgets_r
0121b400 g     F .text	00000158 alt_write_value_to_flash
012043c0 g     F .text	0000005c _mbtowc_r
01222166 g     O .rwdata	00000002 OSMemMax
01217fdc g     F .text	00000170 OSQPostFront
0121bb18 g     F .text	00000038 alt_write_native_16bit
0120fc20 g     F .text	00000054 .hidden __divsi3
01222235 g     O .bss	00000003 OSRdyTbl
01222140 g     O .rwdata	00000002 OSDebugEn
01203604 g     F .text	00000124 _malloc_trim_r
0121fd40 g       *ABS*	00000000 __CTOR_END__
01222158 g     O .rwdata	00000002 OSFlagNodeSize
012221a0 g     O .rwdata	00000002 OSTmrCfgMax
01204d74 g     F .text	000000a4 strcmp
01217490 g     F .text	000001fc OSQCreate
01219e88 g     F .text	000001a8 OSTaskNameGet
0121814c g     F .text	0000020c OSQPostOpt
01213eec g     F .text	0000021c OSTimeTick
01222188 g     O .rwdata	00000002 OSTaskMax
0121fd40 g       *ABS*	00000000 __DTOR_LIST__
01218610 g     F .text	00000100 OSSemCreate
012221ac g     O .rwdata	00000002 OSTmrWheelSize
0121102c g     F .text	00000084 .hidden __nedf2
01222182 g     O .rwdata	00000002 OSTaskDelEn
01218e5c g     F .text	00000110 OSSemQuery
0121768c g     F .text	000002c8 OSQDel
01217d08 g     F .text	0000016c OSQPendAbort
0121aef0 g     F .text	00000034 alt_irq_init
01212ce0 g     F .text	00000060 alt_release_fd
01204d08 g     F .text	0000006c sprintf
012202e0 g     O .rodata	00000100 .hidden __clz_tab
012221d8 g     O .bss	00000004 _PathLocale
01206374 g     F .text	00000104 strtof
0121f994 g     F .text	00000014 atexit
0120fd54 g     F .text	000000b8 .hidden __gesf2
012031e8 g     F .text	0000005c _write_r
01213c74 g     F .text	00000088 OSSchedLock
01203fa4 g     F .text	0000001c setlocale
012156b8 g     F .text	00000128 OSFlagCreate
01204ca8 g     F .text	00000008 nanf
01222104 g     O .rwdata	00000004 _impure_ptr
012221e8 g     O .bss	00000004 alt_argc
012041e0 g     F .text	000000ac _mbrtowc_r
0121ddac g     F .text	0000005c _do_dtors
01203f90 g     F .text	00000008 __locale_cjk_lang
01222152 g     O .rwdata	00000002 OSEventMultiEn
012015bc g     F .text	000001a8 __srefill_r
012157e0 g     F .text	00000270 OSFlagDel
01222238 g     O .bss	00000004 OSEventFreeList
01200020 g       .exceptions	00000000 alt_irq_entry
0120437c g     F .text	00000044 __ascii_mbtowc
0120d708 g     F .text	00000060 __ulp
01215cd0 g     F .text	000005f0 OSFlagPend
0122219e g     O .rwdata	00000002 OSTmrEn
01200860 g     F .text	00000018 __fp_unlock_all
0122211c g     O .rwdata	00000008 alt_fs_list
01214c98 g     F .text	00000074 OS_StrCopy
0121b9a4 g     F .text	00000050 alt_write_flash_command_32bit_device_8bit_mode
01222168 g     O .rwdata	00000002 OSMemNameSize
0121eb6c g     F .text	0000001c OSInitHookEnd
0120726c g     F .text	000010a4 __ssvfiscanf_r
01222194 g     O .rwdata	00000002 OSTCBPrioTblMax
01203fc0 g     F .text	0000000c localeconv
01222190 g     O .rwdata	00000002 OSTaskStatStkChkEn
0121dec0 g     F .text	00000050 alt_ic_isr_register
01222164 g     O .rwdata	00000002 OSMemEn
0120c0c8 g     F .text	00000084 __hexdig_init
01201834 g     F .text	00000078 _sscanf_r
0122216e g     O .rwdata	00000002 OSMutexEn
012221c8 g       *ABS*	00000000 _edata
012256ac g       *ABS*	00000000 _end
0121de08 g     F .text	00000068 alt_flash_open_dev
0122223c g     O .bss	00000001 OSIntNesting
0121d34c g     F .text	000000ec altera_avalon_jtag_uart_ioctl
0121ac00 g     F .text	000001f0 OSTimeDlyResume
01215b80 g     F .text	00000150 OSFlagNameSet
0121a3e8 g     F .text	000001c8 OSTaskStkChk
0121dfb0 g     F .text	000000a4 alt_ic_irq_disable
0122216a g     O .rwdata	00000002 OSMemSize
01201908 g     F .text	0000007c __swrite
0122210c g     O .rwdata	00000004 __malloc_trim_threshold
0121e6d8 g     F .text	00000020 altera_nios2_qsys_irq_init
01203f84 g     F .text	0000000c __locale_msgcharset
01222240 g     O .bss	00000004 OSTCBCur
0121f9a8 g     F .text	00000038 exit
0122216c g     O .rwdata	00000002 OSMemTblSize
01200930 g     F .text	000000b8 _fwalk_reent
0120d570 g     F .text	00000198 __mdiff
0121de70 g     F .text	00000050 alt_flash_close_dev
0120fc74 g     F .text	0000005c .hidden __modsi3
01222110 g     O .rwdata	00000004 __ctype_ptr__
01400000 g       *ABS*	00000000 __alt_data_end
01200020 g     F .exceptions	00000000 alt_exception
0120083c g     F .text	00000004 __sfp_lock_release
01213ab0 g     F .text	00000054 OSInit
0121a7c4 g     F .text	0000012c OSTaskQuery
012184b4 g     F .text	000000ac OS_QInit
01204be8 g     F .text	000000c0 __sccl
01214d0c g     F .text	00000054 OS_StrLen
01216fa8 g     F .text	00000118 OSMemNameSet
0121fe20 g     O .rodata	00000101 _ctype_
01222186 g     O .rwdata	00000002 OSTaskProfileEn
01222244 g     O .bss	00000004 OSTime
01222118 g     O .rwdata	00000004 __mbtowc
01223d08 g     O .bss	00000800 OSTaskIdleStk
0121fd04 g     F .text	0000003c _exit
0121daa8 g     F .text	00000140 alt_alarm_start
01215a50 g     F .text	00000130 OSFlagNameGet
0121adf0 g     F .text	00000064 OSTimeGet
0120ef90 g     F .text	00000060 .hidden __muldi3
01204028 g     F .text	000001b8 __smakebuf_r
0121bb50 g     F .text	00000034 alt_write_native_32bit
012019e8 g     F .text	00000098 strlen
0121eafc g     F .text	0000001c OSTaskSwHook
0121e3e4 g     F .text	00000158 open
01224508 g     O .bss	00000b40 OSEventTbl
012110b0 g     F .text	000000e0 .hidden __gedf2
01225048 g     O .bss	00000510 OSTCBTbl
0120c14c g     F .text	0000081c __gethex
01218f6c g     F .text	000000fc OSSemSet
0121b310 g     F .text	0000008c alt_flash_cfi_get_info
012221bc g     O .rwdata	00000004 alt_priority_mask
01218710 g     F .text	00000268 OSSemDel
01222248 g     O .bss	00000004 OSFlagFreeList
0121df10 g     F .text	000000a0 alt_ic_irq_enable
0122214c g     O .rwdata	00000002 OSEventNameSize
0122224c g     O .bss	00000001 OSStatRdy
01225558 g     O .bss	00000054 OSTCBPrioTbl
01212f38 g     F .text	000000c0 __env_lock
01222192 g     O .rwdata	00000002 OSTaskSwHookEn
01211994 g     F .text	000008d0 .hidden __subdf3
0120cfa0 g     F .text	000000b0 __lo0bits
012221c0 g     O .rwdata	00000008 alt_alarm_list
0120a374 g     F .text	00000188 _ungetc_r
0122215a g     O .rwdata	00000002 OSFlagWidth
0121dd50 g     F .text	0000005c _do_ctors
012126ac g     F .text	000000d0 close
0121ebc4 g     F .text	00000068 alt_program_amd
012221f8 g     O .bss	00000004 alt_envsem
01222250 g     O .bss	00000004 OSIdleCtrRun
01214108 g     F .text	00000020 OSVersion
012221a4 g     O .rwdata	00000002 OSTmrCfgWheelSize
0121a8f0 g     F .text	0000006c OS_TaskStkClr
0122217e g     O .rwdata	00000002 OSTaskCreateEn
012146e4 g     F .text	00000064 OS_EventWaitListInit
0121eb88 g     F .text	0000001c OSTaskIdleHook
00000000  w      *UND*	00000000 free
01200840 g     F .text	00000004 __sinit_lock_acquire
0120cd20 g     F .text	00000114 __multadd
0121a5b0 g     F .text	00000214 OSTaskSuspend
0120ccf8 g     F .text	00000028 _Bfree
01214d60 g     F .text	0000005c OS_TaskIdle
012221aa g     O .rwdata	00000002 OSTmrTblSize
01218358 g     F .text	0000015c OSQQuery



Disassembly of section .exceptions:

01200020 <alt_exception>:
 1200020:	deffed04 	addi	sp,sp,-76
 1200024:	dfc00015 	stw	ra,0(sp)
 1200028:	d8400215 	stw	at,8(sp)
 120002c:	d8800315 	stw	r2,12(sp)
 1200030:	d8c00415 	stw	r3,16(sp)
 1200034:	d9000515 	stw	r4,20(sp)
 1200038:	d9400615 	stw	r5,24(sp)
 120003c:	d9800715 	stw	r6,28(sp)
 1200040:	d9c00815 	stw	r7,32(sp)
 1200044:	000b307a 	rdctl	r5,estatus
 1200048:	da000915 	stw	r8,36(sp)
 120004c:	da400a15 	stw	r9,40(sp)
 1200050:	da800b15 	stw	r10,44(sp)
 1200054:	dac00c15 	stw	r11,48(sp)
 1200058:	db000d15 	stw	r12,52(sp)
 120005c:	db400e15 	stw	r13,56(sp)
 1200060:	db800f15 	stw	r14,60(sp)
 1200064:	dbc01015 	stw	r15,64(sp)
 1200068:	d9401115 	stw	r5,68(sp)
 120006c:	ebffff04 	addi	r15,ea,-4
 1200070:	dbc01215 	stw	r15,72(sp)
 1200074:	0009313a 	rdctl	r4,ipending
 1200078:	2880004c 	andi	r2,r5,1
 120007c:	10000326 	beq	r2,zero,120008c <alt_exception+0x6c>
 1200080:	20000226 	beq	r4,zero,120008c <alt_exception+0x6c>
 1200084:	12000ec0 	call	12000ec <alt_irq_handler>
 1200088:	00000306 	br	1200098 <alt_exception_unknown+0x4>
 120008c:	df401215 	stw	ea,72(sp)
 1200090:	e8bfff17 	ldw	r2,-4(ea)

01200094 <alt_exception_unknown>:
 1200094:	003da03a 	break	0
 1200098:	d9401117 	ldw	r5,68(sp)
 120009c:	df401217 	ldw	ea,72(sp)
 12000a0:	dfc00017 	ldw	ra,0(sp)
 12000a4:	2801707a 	wrctl	estatus,r5
 12000a8:	d8400217 	ldw	at,8(sp)
 12000ac:	d8800317 	ldw	r2,12(sp)
 12000b0:	d8c00417 	ldw	r3,16(sp)
 12000b4:	d9000517 	ldw	r4,20(sp)
 12000b8:	d9400617 	ldw	r5,24(sp)
 12000bc:	d9800717 	ldw	r6,28(sp)
 12000c0:	d9c00817 	ldw	r7,32(sp)
 12000c4:	da000917 	ldw	r8,36(sp)
 12000c8:	da400a17 	ldw	r9,40(sp)
 12000cc:	da800b17 	ldw	r10,44(sp)
 12000d0:	dac00c17 	ldw	r11,48(sp)
 12000d4:	db000d17 	ldw	r12,52(sp)
 12000d8:	db400e17 	ldw	r13,56(sp)
 12000dc:	db800f17 	ldw	r14,60(sp)
 12000e0:	dbc01017 	ldw	r15,64(sp)
 12000e4:	dec01304 	addi	sp,sp,76
 12000e8:	ef80083a 	eret

012000ec <alt_irq_handler>:
 12000ec:	defff904 	addi	sp,sp,-28
 12000f0:	dfc00615 	stw	ra,24(sp)
 12000f4:	df000515 	stw	fp,20(sp)
 12000f8:	df000504 	addi	fp,sp,20
 12000fc:	1213b040 	call	1213b04 <OSIntEnter>
 1200100:	0005313a 	rdctl	r2,ipending
 1200104:	e0bffe15 	stw	r2,-8(fp)
 1200108:	e0bffe17 	ldw	r2,-8(fp)
 120010c:	e0bffb15 	stw	r2,-20(fp)
 1200110:	e03ffd15 	stw	zero,-12(fp)
 1200114:	00800044 	movi	r2,1
 1200118:	e0bffc15 	stw	r2,-16(fp)
 120011c:	e0fffb17 	ldw	r3,-20(fp)
 1200120:	e0bffc17 	ldw	r2,-16(fp)
 1200124:	1884703a 	and	r2,r3,r2
 1200128:	10001426 	beq	r2,zero,120017c <alt_irq_handler+0x90>
 120012c:	008048b4 	movhi	r2,290
 1200130:	10956b04 	addi	r2,r2,21932
 1200134:	e0fffd17 	ldw	r3,-12(fp)
 1200138:	180690fa 	slli	r3,r3,3
 120013c:	10c5883a 	add	r2,r2,r3
 1200140:	10c00017 	ldw	r3,0(r2)
 1200144:	008048b4 	movhi	r2,290
 1200148:	10956b04 	addi	r2,r2,21932
 120014c:	e13ffd17 	ldw	r4,-12(fp)
 1200150:	200890fa 	slli	r4,r4,3
 1200154:	1105883a 	add	r2,r2,r4
 1200158:	10800104 	addi	r2,r2,4
 120015c:	10800017 	ldw	r2,0(r2)
 1200160:	1009883a 	mov	r4,r2
 1200164:	183ee83a 	callr	r3
 1200168:	0001883a 	nop
 120016c:	0005313a 	rdctl	r2,ipending
 1200170:	e0bfff15 	stw	r2,-4(fp)
 1200174:	e0bfff17 	ldw	r2,-4(fp)
 1200178:	00000706 	br	1200198 <alt_irq_handler+0xac>
 120017c:	e0bffc17 	ldw	r2,-16(fp)
 1200180:	1085883a 	add	r2,r2,r2
 1200184:	e0bffc15 	stw	r2,-16(fp)
 1200188:	e0bffd17 	ldw	r2,-12(fp)
 120018c:	10800044 	addi	r2,r2,1
 1200190:	e0bffd15 	stw	r2,-12(fp)
 1200194:	003fe106 	br	120011c <__alt_mem_instruction_tcm+0xff20011c>
 1200198:	e0bffb15 	stw	r2,-20(fp)
 120019c:	e0bffb17 	ldw	r2,-20(fp)
 12001a0:	103fdb1e 	bne	r2,zero,1200110 <__alt_mem_instruction_tcm+0xff200110>
 12001a4:	1213b800 	call	1213b80 <OSIntExit>
 12001a8:	e037883a 	mov	sp,fp
 12001ac:	dfc00117 	ldw	ra,4(sp)
 12001b0:	df000017 	ldw	fp,0(sp)
 12001b4:	dec00204 	addi	sp,sp,8
 12001b8:	f800283a 	ret

Disassembly of section .text:

012001bc <_start>:
 12001bc:	00820014 	movui	r2,2048
 12001c0:	10000033 	initd	0(r2)
 12001c4:	10bff804 	addi	r2,r2,-32
 12001c8:	00bffd16 	blt	zero,r2,12001c0 <__alt_mem_instruction_tcm+0xff2001c0>
 12001cc:	06c05034 	movhi	sp,320
 12001d0:	dec00014 	ori	sp,sp,0
 12001d4:	068048b4 	movhi	gp,290
 12001d8:	d6a84014 	ori	gp,gp,41216
 12001dc:	008048b4 	movhi	r2,290
 12001e0:	10887214 	ori	r2,r2,8648
 12001e4:	00c048b4 	movhi	r3,290
 12001e8:	18d5ab14 	ori	r3,r3,22188
 12001ec:	10c00326 	beq	r2,r3,12001fc <_start+0x40>
 12001f0:	10000015 	stw	zero,0(r2)
 12001f4:	10800104 	addi	r2,r2,4
 12001f8:	10fffd36 	bltu	r2,r3,12001f0 <__alt_mem_instruction_tcm+0xff2001f0>
 12001fc:	1212ac00 	call	1212ac0 <alt_main>

01200200 <alt_after_alt_main>:
 1200200:	003fff06 	br	1200200 <__alt_mem_instruction_tcm+0xff200200>

01200204 <main>:
 1200204:	deffe404 	addi	sp,sp,-112
 1200208:	dfc01b15 	stw	ra,108(sp)
 120020c:	df001a15 	stw	fp,104(sp)
 1200210:	df001a04 	addi	fp,sp,104
 1200214:	010048b4 	movhi	r4,290
 1200218:	213f5004 	addi	r4,r4,-704
 120021c:	120158c0 	call	120158c <puts>
 1200220:	010048b4 	movhi	r4,290
 1200224:	213f5604 	addi	r4,r4,-680
 1200228:	120158c0 	call	120158c <puts>
 120022c:	00c00144 	movi	r3,5
 1200230:	00805034 	movhi	r2,320
 1200234:	10843004 	addi	r2,r2,4288
 1200238:	10c00035 	stwio	r3,0(r2)
 120023c:	008048b4 	movhi	r2,290
 1200240:	10884104 	addi	r2,r2,8452
 1200244:	10800017 	ldw	r2,0(r2)
 1200248:	10800117 	ldw	r2,4(r2)
 120024c:	e0ffe704 	addi	r3,fp,-100
 1200250:	1809883a 	mov	r4,r3
 1200254:	01401904 	movi	r5,100
 1200258:	100d883a 	mov	r6,r2
 120025c:	12004b40 	call	12004b4 <fgets>
 1200260:	e0bfe704 	addi	r2,fp,-100
 1200264:	1009883a 	mov	r4,r2
 1200268:	014048b4 	movhi	r5,290
 120026c:	297f6404 	addi	r5,r5,-624
 1200270:	e1bfe604 	addi	r6,fp,-104
 1200274:	12017b80 	call	12017b8 <sscanf>
 1200278:	e0bfe617 	ldw	r2,-104(fp)
 120027c:	10c00168 	cmpgeui	r3,r2,5
 1200280:	18002d1e 	bne	r3,zero,1200338 <main+0x134>
 1200284:	100690ba 	slli	r3,r2,2
 1200288:	00804834 	movhi	r2,288
 120028c:	1080a704 	addi	r2,r2,668
 1200290:	1885883a 	add	r2,r3,r2
 1200294:	10800017 	ldw	r2,0(r2)
 1200298:	1000683a 	jmp	r2
 120029c:	01200330 	cmpltui	r4,zero,32780
 12002a0:	01200310 	cmplti	r4,zero,-32756
 12002a4:	012002f0 	cmpltui	r4,zero,32779
 12002a8:	012002d0 	cmplti	r4,zero,-32757
 12002ac:	012002b0 	cmpltui	r4,zero,32778
 12002b0:	00c00104 	movi	r3,4
 12002b4:	00805034 	movhi	r2,320
 12002b8:	10843004 	addi	r2,r2,4288
 12002bc:	10c00035 	stwio	r3,0(r2)
 12002c0:	010048b4 	movhi	r4,290
 12002c4:	213f6504 	addi	r4,r4,-620
 12002c8:	120158c0 	call	120158c <puts>
 12002cc:	00001e06 	br	1200348 <main+0x144>
 12002d0:	00c000c4 	movi	r3,3
 12002d4:	00805034 	movhi	r2,320
 12002d8:	10843004 	addi	r2,r2,4288
 12002dc:	10c00035 	stwio	r3,0(r2)
 12002e0:	010048b4 	movhi	r4,290
 12002e4:	213f6804 	addi	r4,r4,-608
 12002e8:	120158c0 	call	120158c <puts>
 12002ec:	00001606 	br	1200348 <main+0x144>
 12002f0:	00c00084 	movi	r3,2
 12002f4:	00805034 	movhi	r2,320
 12002f8:	10843004 	addi	r2,r2,4288
 12002fc:	10c00035 	stwio	r3,0(r2)
 1200300:	010048b4 	movhi	r4,290
 1200304:	213f6b04 	addi	r4,r4,-596
 1200308:	120158c0 	call	120158c <puts>
 120030c:	00000e06 	br	1200348 <main+0x144>
 1200310:	00c00044 	movi	r3,1
 1200314:	00805034 	movhi	r2,320
 1200318:	10843004 	addi	r2,r2,4288
 120031c:	10c00035 	stwio	r3,0(r2)
 1200320:	010048b4 	movhi	r4,290
 1200324:	213f6e04 	addi	r4,r4,-584
 1200328:	120158c0 	call	120158c <puts>
 120032c:	00000606 	br	1200348 <main+0x144>
 1200330:	0005883a 	mov	r2,zero
 1200334:	00000506 	br	120034c <main+0x148>
 1200338:	010048b4 	movhi	r4,290
 120033c:	213f7104 	addi	r4,r4,-572
 1200340:	120158c0 	call	120158c <puts>
 1200344:	0001883a 	nop
 1200348:	003fbc06 	br	120023c <__alt_mem_instruction_tcm+0xff20023c>
 120034c:	e037883a 	mov	sp,fp
 1200350:	dfc00117 	ldw	ra,4(sp)
 1200354:	df000017 	ldw	fp,0(sp)
 1200358:	dec00204 	addi	sp,sp,8
 120035c:	f800283a 	ret

01200360 <_fgets_r>:
 1200360:	00c00044 	movi	r3,1
 1200364:	1980510e 	bge	r3,r6,12004ac <_fgets_r+0x14c>
 1200368:	defff804 	addi	sp,sp,-32
 120036c:	dd000415 	stw	r20,16(sp)
 1200370:	dcc00315 	stw	r19,12(sp)
 1200374:	dc800215 	stw	r18,8(sp)
 1200378:	dc400115 	stw	r17,4(sp)
 120037c:	dfc00715 	stw	ra,28(sp)
 1200380:	dd800615 	stw	r22,24(sp)
 1200384:	dd400515 	stw	r21,20(sp)
 1200388:	dc000015 	stw	r16,0(sp)
 120038c:	2027883a 	mov	r19,r4
 1200390:	3823883a 	mov	r17,r7
 1200394:	2829883a 	mov	r20,r5
 1200398:	3025883a 	mov	r18,r6
 120039c:	20000226 	beq	r4,zero,12003a8 <_fgets_r+0x48>
 12003a0:	20800e17 	ldw	r2,56(r4)
 12003a4:	10003c26 	beq	r2,zero,1200498 <_fgets_r+0x138>
 12003a8:	12008380 	call	1200838 <__sfp_lock_acquire>
 12003ac:	94bfffc4 	addi	r18,r18,-1
 12003b0:	a02b883a 	mov	r21,r20
 12003b4:	00001506 	br	120040c <_fgets_r+0xac>
 12003b8:	01400284 	movi	r5,10
 12003bc:	8d800017 	ldw	r22,0(r17)
 12003c0:	9400012e 	bgeu	r18,r16,12003c8 <_fgets_r+0x68>
 12003c4:	9021883a 	mov	r16,r18
 12003c8:	b009883a 	mov	r4,r22
 12003cc:	800d883a 	mov	r6,r16
 12003d0:	12011900 	call	1201190 <memchr>
 12003d4:	a809883a 	mov	r4,r21
 12003d8:	b00b883a 	mov	r5,r22
 12003dc:	800d883a 	mov	r6,r16
 12003e0:	9425c83a 	sub	r18,r18,r16
 12003e4:	10001f1e 	bne	r2,zero,1200464 <_fgets_r+0x104>
 12003e8:	88800117 	ldw	r2,4(r17)
 12003ec:	88c00017 	ldw	r3,0(r17)
 12003f0:	ac2b883a 	add	r21,r21,r16
 12003f4:	1405c83a 	sub	r2,r2,r16
 12003f8:	1c21883a 	add	r16,r3,r16
 12003fc:	88800115 	stw	r2,4(r17)
 1200400:	8c000015 	stw	r16,0(r17)
 1200404:	12012780 	call	1201278 <memcpy>
 1200408:	90000926 	beq	r18,zero,1200430 <_fgets_r+0xd0>
 120040c:	8c000117 	ldw	r16,4(r17)
 1200410:	803fe91e 	bne	r16,zero,12003b8 <__alt_mem_instruction_tcm+0xff2003b8>
 1200414:	9809883a 	mov	r4,r19
 1200418:	880b883a 	mov	r5,r17
 120041c:	12015bc0 	call	12015bc <__srefill_r>
 1200420:	1000021e 	bne	r2,zero,120042c <_fgets_r+0xcc>
 1200424:	8c000117 	ldw	r16,4(r17)
 1200428:	003fe306 	br	12003b8 <__alt_mem_instruction_tcm+0xff2003b8>
 120042c:	a5401c26 	beq	r20,r21,12004a0 <_fgets_r+0x140>
 1200430:	a8000005 	stb	zero,0(r21)
 1200434:	120083c0 	call	120083c <__sfp_lock_release>
 1200438:	a005883a 	mov	r2,r20
 120043c:	dfc00717 	ldw	ra,28(sp)
 1200440:	dd800617 	ldw	r22,24(sp)
 1200444:	dd400517 	ldw	r21,20(sp)
 1200448:	dd000417 	ldw	r20,16(sp)
 120044c:	dcc00317 	ldw	r19,12(sp)
 1200450:	dc800217 	ldw	r18,8(sp)
 1200454:	dc400117 	ldw	r17,4(sp)
 1200458:	dc000017 	ldw	r16,0(sp)
 120045c:	dec00804 	addi	sp,sp,32
 1200460:	f800283a 	ret
 1200464:	88c00117 	ldw	r3,4(r17)
 1200468:	10800044 	addi	r2,r2,1
 120046c:	15a1c83a 	sub	r16,r2,r22
 1200470:	1c07c83a 	sub	r3,r3,r16
 1200474:	800d883a 	mov	r6,r16
 1200478:	88c00115 	stw	r3,4(r17)
 120047c:	88800015 	stw	r2,0(r17)
 1200480:	ac2b883a 	add	r21,r21,r16
 1200484:	12012780 	call	1201278 <memcpy>
 1200488:	a8000005 	stb	zero,0(r21)
 120048c:	120083c0 	call	120083c <__sfp_lock_release>
 1200490:	a005883a 	mov	r2,r20
 1200494:	003fe906 	br	120043c <__alt_mem_instruction_tcm+0xff20043c>
 1200498:	12008280 	call	1200828 <__sinit>
 120049c:	003fc206 	br	12003a8 <__alt_mem_instruction_tcm+0xff2003a8>
 12004a0:	120083c0 	call	120083c <__sfp_lock_release>
 12004a4:	0005883a 	mov	r2,zero
 12004a8:	003fe406 	br	120043c <__alt_mem_instruction_tcm+0xff20043c>
 12004ac:	0005883a 	mov	r2,zero
 12004b0:	f800283a 	ret

012004b4 <fgets>:
 12004b4:	2007883a 	mov	r3,r4
 12004b8:	010048b4 	movhi	r4,290
 12004bc:	21084104 	addi	r4,r4,8452
 12004c0:	21000017 	ldw	r4,0(r4)
 12004c4:	2805883a 	mov	r2,r5
 12004c8:	300f883a 	mov	r7,r6
 12004cc:	180b883a 	mov	r5,r3
 12004d0:	100d883a 	mov	r6,r2
 12004d4:	12003601 	jmpi	1200360 <_fgets_r>

012004d8 <__fp_lock>:
 12004d8:	0005883a 	mov	r2,zero
 12004dc:	f800283a 	ret

012004e0 <__fp_unlock>:
 12004e0:	0005883a 	mov	r2,zero
 12004e4:	f800283a 	ret

012004e8 <_cleanup_r>:
 12004e8:	01404834 	movhi	r5,288
 12004ec:	294ce604 	addi	r5,r5,13208
 12004f0:	12008781 	jmpi	1200878 <_fwalk>

012004f4 <__sinit.part.1>:
 12004f4:	defff604 	addi	sp,sp,-40
 12004f8:	00c04834 	movhi	r3,288
 12004fc:	dfc00915 	stw	ra,36(sp)
 1200500:	df000815 	stw	fp,32(sp)
 1200504:	ddc00715 	stw	r23,28(sp)
 1200508:	dd800615 	stw	r22,24(sp)
 120050c:	dd400515 	stw	r21,20(sp)
 1200510:	dd000415 	stw	r20,16(sp)
 1200514:	dcc00315 	stw	r19,12(sp)
 1200518:	dc800215 	stw	r18,8(sp)
 120051c:	dc400115 	stw	r17,4(sp)
 1200520:	dc000015 	stw	r16,0(sp)
 1200524:	18c13a04 	addi	r3,r3,1256
 1200528:	24000117 	ldw	r16,4(r4)
 120052c:	20c00f15 	stw	r3,60(r4)
 1200530:	07000044 	movi	fp,1
 1200534:	00c000c4 	movi	r3,3
 1200538:	2080bb04 	addi	r2,r4,748
 120053c:	20c0b915 	stw	r3,740(r4)
 1200540:	27000e15 	stw	fp,56(r4)
 1200544:	2080ba15 	stw	r2,744(r4)
 1200548:	2000b815 	stw	zero,736(r4)
 120054c:	05c00204 	movi	r23,8
 1200550:	00800104 	movi	r2,4
 1200554:	2025883a 	mov	r18,r4
 1200558:	b80d883a 	mov	r6,r23
 120055c:	81001704 	addi	r4,r16,92
 1200560:	000b883a 	mov	r5,zero
 1200564:	80000015 	stw	zero,0(r16)
 1200568:	80000115 	stw	zero,4(r16)
 120056c:	80000215 	stw	zero,8(r16)
 1200570:	8080030d 	sth	r2,12(r16)
 1200574:	80001915 	stw	zero,100(r16)
 1200578:	8000038d 	sth	zero,14(r16)
 120057c:	80000415 	stw	zero,16(r16)
 1200580:	80000515 	stw	zero,20(r16)
 1200584:	80000615 	stw	zero,24(r16)
 1200588:	12013b00 	call	12013b0 <memset>
 120058c:	05804834 	movhi	r22,288
 1200590:	94400217 	ldw	r17,8(r18)
 1200594:	05404834 	movhi	r21,288
 1200598:	05004834 	movhi	r20,288
 120059c:	04c04834 	movhi	r19,288
 12005a0:	b5862b04 	addi	r22,r22,6316
 12005a4:	ad464204 	addi	r21,r21,6408
 12005a8:	a5066104 	addi	r20,r20,6532
 12005ac:	9cc67804 	addi	r19,r19,6624
 12005b0:	85800815 	stw	r22,32(r16)
 12005b4:	85400915 	stw	r21,36(r16)
 12005b8:	85000a15 	stw	r20,40(r16)
 12005bc:	84c00b15 	stw	r19,44(r16)
 12005c0:	84000715 	stw	r16,28(r16)
 12005c4:	00800284 	movi	r2,10
 12005c8:	89001704 	addi	r4,r17,92
 12005cc:	b80d883a 	mov	r6,r23
 12005d0:	000b883a 	mov	r5,zero
 12005d4:	88000015 	stw	zero,0(r17)
 12005d8:	88000115 	stw	zero,4(r17)
 12005dc:	88000215 	stw	zero,8(r17)
 12005e0:	8880030d 	sth	r2,12(r17)
 12005e4:	88001915 	stw	zero,100(r17)
 12005e8:	8f00038d 	sth	fp,14(r17)
 12005ec:	88000415 	stw	zero,16(r17)
 12005f0:	88000515 	stw	zero,20(r17)
 12005f4:	88000615 	stw	zero,24(r17)
 12005f8:	12013b00 	call	12013b0 <memset>
 12005fc:	94000317 	ldw	r16,12(r18)
 1200600:	00800484 	movi	r2,18
 1200604:	8c400715 	stw	r17,28(r17)
 1200608:	8d800815 	stw	r22,32(r17)
 120060c:	8d400915 	stw	r21,36(r17)
 1200610:	8d000a15 	stw	r20,40(r17)
 1200614:	8cc00b15 	stw	r19,44(r17)
 1200618:	8080030d 	sth	r2,12(r16)
 120061c:	00800084 	movi	r2,2
 1200620:	80000015 	stw	zero,0(r16)
 1200624:	80000115 	stw	zero,4(r16)
 1200628:	80000215 	stw	zero,8(r16)
 120062c:	80001915 	stw	zero,100(r16)
 1200630:	8080038d 	sth	r2,14(r16)
 1200634:	80000415 	stw	zero,16(r16)
 1200638:	80000515 	stw	zero,20(r16)
 120063c:	80000615 	stw	zero,24(r16)
 1200640:	81001704 	addi	r4,r16,92
 1200644:	000b883a 	mov	r5,zero
 1200648:	b80d883a 	mov	r6,r23
 120064c:	12013b00 	call	12013b0 <memset>
 1200650:	84000715 	stw	r16,28(r16)
 1200654:	85800815 	stw	r22,32(r16)
 1200658:	85400915 	stw	r21,36(r16)
 120065c:	85000a15 	stw	r20,40(r16)
 1200660:	84c00b15 	stw	r19,44(r16)
 1200664:	dfc00917 	ldw	ra,36(sp)
 1200668:	df000817 	ldw	fp,32(sp)
 120066c:	ddc00717 	ldw	r23,28(sp)
 1200670:	dd800617 	ldw	r22,24(sp)
 1200674:	dd400517 	ldw	r21,20(sp)
 1200678:	dd000417 	ldw	r20,16(sp)
 120067c:	dcc00317 	ldw	r19,12(sp)
 1200680:	dc800217 	ldw	r18,8(sp)
 1200684:	dc400117 	ldw	r17,4(sp)
 1200688:	dc000017 	ldw	r16,0(sp)
 120068c:	dec00a04 	addi	sp,sp,40
 1200690:	f800283a 	ret

01200694 <__sfmoreglue>:
 1200694:	defffc04 	addi	sp,sp,-16
 1200698:	dc400115 	stw	r17,4(sp)
 120069c:	2c401a24 	muli	r17,r5,104
 12006a0:	dc800215 	stw	r18,8(sp)
 12006a4:	2825883a 	mov	r18,r5
 12006a8:	89400304 	addi	r5,r17,12
 12006ac:	dc000015 	stw	r16,0(sp)
 12006b0:	dfc00315 	stw	ra,12(sp)
 12006b4:	12009e80 	call	12009e8 <_malloc_r>
 12006b8:	1021883a 	mov	r16,r2
 12006bc:	10000726 	beq	r2,zero,12006dc <__sfmoreglue+0x48>
 12006c0:	11000304 	addi	r4,r2,12
 12006c4:	10000015 	stw	zero,0(r2)
 12006c8:	14800115 	stw	r18,4(r2)
 12006cc:	11000215 	stw	r4,8(r2)
 12006d0:	000b883a 	mov	r5,zero
 12006d4:	880d883a 	mov	r6,r17
 12006d8:	12013b00 	call	12013b0 <memset>
 12006dc:	8005883a 	mov	r2,r16
 12006e0:	dfc00317 	ldw	ra,12(sp)
 12006e4:	dc800217 	ldw	r18,8(sp)
 12006e8:	dc400117 	ldw	r17,4(sp)
 12006ec:	dc000017 	ldw	r16,0(sp)
 12006f0:	dec00404 	addi	sp,sp,16
 12006f4:	f800283a 	ret

012006f8 <__sfp>:
 12006f8:	008048b4 	movhi	r2,290
 12006fc:	defffb04 	addi	sp,sp,-20
 1200700:	10884004 	addi	r2,r2,8448
 1200704:	dc800215 	stw	r18,8(sp)
 1200708:	14800017 	ldw	r18,0(r2)
 120070c:	dcc00315 	stw	r19,12(sp)
 1200710:	dfc00415 	stw	ra,16(sp)
 1200714:	90800e17 	ldw	r2,56(r18)
 1200718:	dc400115 	stw	r17,4(sp)
 120071c:	dc000015 	stw	r16,0(sp)
 1200720:	2027883a 	mov	r19,r4
 1200724:	1000021e 	bne	r2,zero,1200730 <__sfp+0x38>
 1200728:	9009883a 	mov	r4,r18
 120072c:	12004f40 	call	12004f4 <__sinit.part.1>
 1200730:	9480b804 	addi	r18,r18,736
 1200734:	047fffc4 	movi	r17,-1
 1200738:	91400117 	ldw	r5,4(r18)
 120073c:	94000217 	ldw	r16,8(r18)
 1200740:	297fffc4 	addi	r5,r5,-1
 1200744:	28000a16 	blt	r5,zero,1200770 <__sfp+0x78>
 1200748:	8080030f 	ldh	r2,12(r16)
 120074c:	10000c26 	beq	r2,zero,1200780 <__sfp+0x88>
 1200750:	80c01d04 	addi	r3,r16,116
 1200754:	00000206 	br	1200760 <__sfp+0x68>
 1200758:	18bfe60f 	ldh	r2,-104(r3)
 120075c:	10000826 	beq	r2,zero,1200780 <__sfp+0x88>
 1200760:	297fffc4 	addi	r5,r5,-1
 1200764:	1c3ffd04 	addi	r16,r3,-12
 1200768:	18c01a04 	addi	r3,r3,104
 120076c:	2c7ffa1e 	bne	r5,r17,1200758 <__alt_mem_instruction_tcm+0xff200758>
 1200770:	90800017 	ldw	r2,0(r18)
 1200774:	10001d26 	beq	r2,zero,12007ec <__sfp+0xf4>
 1200778:	1025883a 	mov	r18,r2
 120077c:	003fee06 	br	1200738 <__alt_mem_instruction_tcm+0xff200738>
 1200780:	00bfffc4 	movi	r2,-1
 1200784:	8080038d 	sth	r2,14(r16)
 1200788:	00800044 	movi	r2,1
 120078c:	8080030d 	sth	r2,12(r16)
 1200790:	80001915 	stw	zero,100(r16)
 1200794:	80000015 	stw	zero,0(r16)
 1200798:	80000215 	stw	zero,8(r16)
 120079c:	80000115 	stw	zero,4(r16)
 12007a0:	80000415 	stw	zero,16(r16)
 12007a4:	80000515 	stw	zero,20(r16)
 12007a8:	80000615 	stw	zero,24(r16)
 12007ac:	81001704 	addi	r4,r16,92
 12007b0:	000b883a 	mov	r5,zero
 12007b4:	01800204 	movi	r6,8
 12007b8:	12013b00 	call	12013b0 <memset>
 12007bc:	8005883a 	mov	r2,r16
 12007c0:	80000c15 	stw	zero,48(r16)
 12007c4:	80000d15 	stw	zero,52(r16)
 12007c8:	80001115 	stw	zero,68(r16)
 12007cc:	80001215 	stw	zero,72(r16)
 12007d0:	dfc00417 	ldw	ra,16(sp)
 12007d4:	dcc00317 	ldw	r19,12(sp)
 12007d8:	dc800217 	ldw	r18,8(sp)
 12007dc:	dc400117 	ldw	r17,4(sp)
 12007e0:	dc000017 	ldw	r16,0(sp)
 12007e4:	dec00504 	addi	sp,sp,20
 12007e8:	f800283a 	ret
 12007ec:	9809883a 	mov	r4,r19
 12007f0:	01400104 	movi	r5,4
 12007f4:	12006940 	call	1200694 <__sfmoreglue>
 12007f8:	90800015 	stw	r2,0(r18)
 12007fc:	103fde1e 	bne	r2,zero,1200778 <__alt_mem_instruction_tcm+0xff200778>
 1200800:	00800304 	movi	r2,12
 1200804:	98800015 	stw	r2,0(r19)
 1200808:	0005883a 	mov	r2,zero
 120080c:	003ff006 	br	12007d0 <__alt_mem_instruction_tcm+0xff2007d0>

01200810 <_cleanup>:
 1200810:	008048b4 	movhi	r2,290
 1200814:	10884004 	addi	r2,r2,8448
 1200818:	11000017 	ldw	r4,0(r2)
 120081c:	01404834 	movhi	r5,288
 1200820:	294ce604 	addi	r5,r5,13208
 1200824:	12008781 	jmpi	1200878 <_fwalk>

01200828 <__sinit>:
 1200828:	20800e17 	ldw	r2,56(r4)
 120082c:	10000126 	beq	r2,zero,1200834 <__sinit+0xc>
 1200830:	f800283a 	ret
 1200834:	12004f41 	jmpi	12004f4 <__sinit.part.1>

01200838 <__sfp_lock_acquire>:
 1200838:	f800283a 	ret

0120083c <__sfp_lock_release>:
 120083c:	f800283a 	ret

01200840 <__sinit_lock_acquire>:
 1200840:	f800283a 	ret

01200844 <__sinit_lock_release>:
 1200844:	f800283a 	ret

01200848 <__fp_lock_all>:
 1200848:	008048b4 	movhi	r2,290
 120084c:	10884104 	addi	r2,r2,8452
 1200850:	11000017 	ldw	r4,0(r2)
 1200854:	01404834 	movhi	r5,288
 1200858:	29413604 	addi	r5,r5,1240
 120085c:	12008781 	jmpi	1200878 <_fwalk>

01200860 <__fp_unlock_all>:
 1200860:	008048b4 	movhi	r2,290
 1200864:	10884104 	addi	r2,r2,8452
 1200868:	11000017 	ldw	r4,0(r2)
 120086c:	01404834 	movhi	r5,288
 1200870:	29413804 	addi	r5,r5,1248
 1200874:	12008781 	jmpi	1200878 <_fwalk>

01200878 <_fwalk>:
 1200878:	defff804 	addi	sp,sp,-32
 120087c:	dd400515 	stw	r21,20(sp)
 1200880:	2540b804 	addi	r21,r4,736
 1200884:	dd800615 	stw	r22,24(sp)
 1200888:	dd000415 	stw	r20,16(sp)
 120088c:	dfc00715 	stw	ra,28(sp)
 1200890:	dcc00315 	stw	r19,12(sp)
 1200894:	dc800215 	stw	r18,8(sp)
 1200898:	dc400115 	stw	r17,4(sp)
 120089c:	dc000015 	stw	r16,0(sp)
 12008a0:	2829883a 	mov	r20,r5
 12008a4:	002d883a 	mov	r22,zero
 12008a8:	12008380 	call	1200838 <__sfp_lock_acquire>
 12008ac:	a8001426 	beq	r21,zero,1200900 <_fwalk+0x88>
 12008b0:	04ffffc4 	movi	r19,-1
 12008b4:	ac400117 	ldw	r17,4(r21)
 12008b8:	ac800217 	ldw	r18,8(r21)
 12008bc:	8c7fffc4 	addi	r17,r17,-1
 12008c0:	88000d16 	blt	r17,zero,12008f8 <_fwalk+0x80>
 12008c4:	94000304 	addi	r16,r18,12
 12008c8:	94800384 	addi	r18,r18,14
 12008cc:	80c0000f 	ldh	r3,0(r16)
 12008d0:	8c7fffc4 	addi	r17,r17,-1
 12008d4:	813ffd04 	addi	r4,r16,-12
 12008d8:	18000426 	beq	r3,zero,12008ec <_fwalk+0x74>
 12008dc:	90c0000f 	ldh	r3,0(r18)
 12008e0:	1cc00226 	beq	r3,r19,12008ec <_fwalk+0x74>
 12008e4:	a03ee83a 	callr	r20
 12008e8:	b0acb03a 	or	r22,r22,r2
 12008ec:	84001a04 	addi	r16,r16,104
 12008f0:	94801a04 	addi	r18,r18,104
 12008f4:	8cfff51e 	bne	r17,r19,12008cc <__alt_mem_instruction_tcm+0xff2008cc>
 12008f8:	ad400017 	ldw	r21,0(r21)
 12008fc:	a83fed1e 	bne	r21,zero,12008b4 <__alt_mem_instruction_tcm+0xff2008b4>
 1200900:	120083c0 	call	120083c <__sfp_lock_release>
 1200904:	b005883a 	mov	r2,r22
 1200908:	dfc00717 	ldw	ra,28(sp)
 120090c:	dd800617 	ldw	r22,24(sp)
 1200910:	dd400517 	ldw	r21,20(sp)
 1200914:	dd000417 	ldw	r20,16(sp)
 1200918:	dcc00317 	ldw	r19,12(sp)
 120091c:	dc800217 	ldw	r18,8(sp)
 1200920:	dc400117 	ldw	r17,4(sp)
 1200924:	dc000017 	ldw	r16,0(sp)
 1200928:	dec00804 	addi	sp,sp,32
 120092c:	f800283a 	ret

01200930 <_fwalk_reent>:
 1200930:	defff804 	addi	sp,sp,-32
 1200934:	dd400515 	stw	r21,20(sp)
 1200938:	2540b804 	addi	r21,r4,736
 120093c:	dd800615 	stw	r22,24(sp)
 1200940:	dd000415 	stw	r20,16(sp)
 1200944:	dcc00315 	stw	r19,12(sp)
 1200948:	dfc00715 	stw	ra,28(sp)
 120094c:	dc800215 	stw	r18,8(sp)
 1200950:	dc400115 	stw	r17,4(sp)
 1200954:	dc000015 	stw	r16,0(sp)
 1200958:	2027883a 	mov	r19,r4
 120095c:	2829883a 	mov	r20,r5
 1200960:	002d883a 	mov	r22,zero
 1200964:	12008380 	call	1200838 <__sfp_lock_acquire>
 1200968:	a8001326 	beq	r21,zero,12009b8 <_fwalk_reent+0x88>
 120096c:	04bfffc4 	movi	r18,-1
 1200970:	ac400117 	ldw	r17,4(r21)
 1200974:	ac000217 	ldw	r16,8(r21)
 1200978:	8c7fffc4 	addi	r17,r17,-1
 120097c:	88000c16 	blt	r17,zero,12009b0 <_fwalk_reent+0x80>
 1200980:	84000304 	addi	r16,r16,12
 1200984:	80c0000f 	ldh	r3,0(r16)
 1200988:	8c7fffc4 	addi	r17,r17,-1
 120098c:	817ffd04 	addi	r5,r16,-12
 1200990:	18000526 	beq	r3,zero,12009a8 <_fwalk_reent+0x78>
 1200994:	80c0008f 	ldh	r3,2(r16)
 1200998:	9809883a 	mov	r4,r19
 120099c:	1c800226 	beq	r3,r18,12009a8 <_fwalk_reent+0x78>
 12009a0:	a03ee83a 	callr	r20
 12009a4:	b0acb03a 	or	r22,r22,r2
 12009a8:	84001a04 	addi	r16,r16,104
 12009ac:	8cbff51e 	bne	r17,r18,1200984 <__alt_mem_instruction_tcm+0xff200984>
 12009b0:	ad400017 	ldw	r21,0(r21)
 12009b4:	a83fee1e 	bne	r21,zero,1200970 <__alt_mem_instruction_tcm+0xff200970>
 12009b8:	120083c0 	call	120083c <__sfp_lock_release>
 12009bc:	b005883a 	mov	r2,r22
 12009c0:	dfc00717 	ldw	ra,28(sp)
 12009c4:	dd800617 	ldw	r22,24(sp)
 12009c8:	dd400517 	ldw	r21,20(sp)
 12009cc:	dd000417 	ldw	r20,16(sp)
 12009d0:	dcc00317 	ldw	r19,12(sp)
 12009d4:	dc800217 	ldw	r18,8(sp)
 12009d8:	dc400117 	ldw	r17,4(sp)
 12009dc:	dc000017 	ldw	r16,0(sp)
 12009e0:	dec00804 	addi	sp,sp,32
 12009e4:	f800283a 	ret

012009e8 <_malloc_r>:
 12009e8:	defff504 	addi	sp,sp,-44
 12009ec:	dc800315 	stw	r18,12(sp)
 12009f0:	dfc00a15 	stw	ra,40(sp)
 12009f4:	df000915 	stw	fp,36(sp)
 12009f8:	ddc00815 	stw	r23,32(sp)
 12009fc:	dd800715 	stw	r22,28(sp)
 1200a00:	dd400615 	stw	r21,24(sp)
 1200a04:	dd000515 	stw	r20,20(sp)
 1200a08:	dcc00415 	stw	r19,16(sp)
 1200a0c:	dc400215 	stw	r17,8(sp)
 1200a10:	dc000115 	stw	r16,4(sp)
 1200a14:	288002c4 	addi	r2,r5,11
 1200a18:	00c00584 	movi	r3,22
 1200a1c:	2025883a 	mov	r18,r4
 1200a20:	18802a2e 	bgeu	r3,r2,1200acc <_malloc_r+0xe4>
 1200a24:	047ffe04 	movi	r17,-8
 1200a28:	1462703a 	and	r17,r2,r17
 1200a2c:	88009e16 	blt	r17,zero,1200ca8 <_malloc_r+0x2c0>
 1200a30:	89409d36 	bltu	r17,r5,1200ca8 <_malloc_r+0x2c0>
 1200a34:	12130540 	call	1213054 <__malloc_lock>
 1200a38:	00807dc4 	movi	r2,503
 1200a3c:	14402736 	bltu	r2,r17,1200adc <_malloc_r+0xf4>
 1200a40:	8806d0fa 	srli	r3,r17,3
 1200a44:	04c048b4 	movhi	r19,290
 1200a48:	9cc25a04 	addi	r19,r19,2408
 1200a4c:	18c5883a 	add	r2,r3,r3
 1200a50:	1085883a 	add	r2,r2,r2
 1200a54:	1085883a 	add	r2,r2,r2
 1200a58:	9885883a 	add	r2,r19,r2
 1200a5c:	14000317 	ldw	r16,12(r2)
 1200a60:	80814a26 	beq	r16,r2,1200f8c <_malloc_r+0x5a4>
 1200a64:	80c00117 	ldw	r3,4(r16)
 1200a68:	81000317 	ldw	r4,12(r16)
 1200a6c:	00bfff04 	movi	r2,-4
 1200a70:	1884703a 	and	r2,r3,r2
 1200a74:	81400217 	ldw	r5,8(r16)
 1200a78:	8085883a 	add	r2,r16,r2
 1200a7c:	10c00117 	ldw	r3,4(r2)
 1200a80:	29000315 	stw	r4,12(r5)
 1200a84:	21400215 	stw	r5,8(r4)
 1200a88:	18c00054 	ori	r3,r3,1
 1200a8c:	10c00115 	stw	r3,4(r2)
 1200a90:	9009883a 	mov	r4,r18
 1200a94:	12131740 	call	1213174 <__malloc_unlock>
 1200a98:	80800204 	addi	r2,r16,8
 1200a9c:	dfc00a17 	ldw	ra,40(sp)
 1200aa0:	df000917 	ldw	fp,36(sp)
 1200aa4:	ddc00817 	ldw	r23,32(sp)
 1200aa8:	dd800717 	ldw	r22,28(sp)
 1200aac:	dd400617 	ldw	r21,24(sp)
 1200ab0:	dd000517 	ldw	r20,20(sp)
 1200ab4:	dcc00417 	ldw	r19,16(sp)
 1200ab8:	dc800317 	ldw	r18,12(sp)
 1200abc:	dc400217 	ldw	r17,8(sp)
 1200ac0:	dc000117 	ldw	r16,4(sp)
 1200ac4:	dec00b04 	addi	sp,sp,44
 1200ac8:	f800283a 	ret
 1200acc:	04400404 	movi	r17,16
 1200ad0:	89407536 	bltu	r17,r5,1200ca8 <_malloc_r+0x2c0>
 1200ad4:	12130540 	call	1213054 <__malloc_lock>
 1200ad8:	003fd906 	br	1200a40 <__alt_mem_instruction_tcm+0xff200a40>
 1200adc:	8806d27a 	srli	r3,r17,9
 1200ae0:	18007526 	beq	r3,zero,1200cb8 <_malloc_r+0x2d0>
 1200ae4:	00800104 	movi	r2,4
 1200ae8:	10c0ef36 	bltu	r2,r3,1200ea8 <_malloc_r+0x4c0>
 1200aec:	8806d1ba 	srli	r3,r17,6
 1200af0:	19c00e04 	addi	r7,r3,56
 1200af4:	39cb883a 	add	r5,r7,r7
 1200af8:	04c048b4 	movhi	r19,290
 1200afc:	294b883a 	add	r5,r5,r5
 1200b00:	9cc25a04 	addi	r19,r19,2408
 1200b04:	294b883a 	add	r5,r5,r5
 1200b08:	994b883a 	add	r5,r19,r5
 1200b0c:	2c000317 	ldw	r16,12(r5)
 1200b10:	2c000e26 	beq	r5,r16,1200b4c <_malloc_r+0x164>
 1200b14:	80800117 	ldw	r2,4(r16)
 1200b18:	01bfff04 	movi	r6,-4
 1200b1c:	010003c4 	movi	r4,15
 1200b20:	1184703a 	and	r2,r2,r6
 1200b24:	1447c83a 	sub	r3,r2,r17
 1200b28:	20c00716 	blt	r4,r3,1200b48 <_malloc_r+0x160>
 1200b2c:	1800650e 	bge	r3,zero,1200cc4 <_malloc_r+0x2dc>
 1200b30:	84000317 	ldw	r16,12(r16)
 1200b34:	2c000526 	beq	r5,r16,1200b4c <_malloc_r+0x164>
 1200b38:	80800117 	ldw	r2,4(r16)
 1200b3c:	1184703a 	and	r2,r2,r6
 1200b40:	1447c83a 	sub	r3,r2,r17
 1200b44:	20fff90e 	bge	r4,r3,1200b2c <__alt_mem_instruction_tcm+0xff200b2c>
 1200b48:	39ffffc4 	addi	r7,r7,-1
 1200b4c:	38c00044 	addi	r3,r7,1
 1200b50:	018048b4 	movhi	r6,290
 1200b54:	9c000417 	ldw	r16,16(r19)
 1200b58:	31825a04 	addi	r6,r6,2408
 1200b5c:	32400204 	addi	r9,r6,8
 1200b60:	82410326 	beq	r16,r9,1200f70 <_malloc_r+0x588>
 1200b64:	81000117 	ldw	r4,4(r16)
 1200b68:	00bfff04 	movi	r2,-4
 1200b6c:	208e703a 	and	r7,r4,r2
 1200b70:	3c45c83a 	sub	r2,r7,r17
 1200b74:	010003c4 	movi	r4,15
 1200b78:	2080ee16 	blt	r4,r2,1200f34 <_malloc_r+0x54c>
 1200b7c:	32400515 	stw	r9,20(r6)
 1200b80:	32400415 	stw	r9,16(r6)
 1200b84:	1000510e 	bge	r2,zero,1200ccc <_malloc_r+0x2e4>
 1200b88:	00807fc4 	movi	r2,511
 1200b8c:	11c0ce36 	bltu	r2,r7,1200ec8 <_malloc_r+0x4e0>
 1200b90:	3808d0fa 	srli	r4,r7,3
 1200b94:	01c00044 	movi	r7,1
 1200b98:	30800117 	ldw	r2,4(r6)
 1200b9c:	210b883a 	add	r5,r4,r4
 1200ba0:	294b883a 	add	r5,r5,r5
 1200ba4:	2009d0ba 	srai	r4,r4,2
 1200ba8:	294b883a 	add	r5,r5,r5
 1200bac:	298b883a 	add	r5,r5,r6
 1200bb0:	2a000217 	ldw	r8,8(r5)
 1200bb4:	3908983a 	sll	r4,r7,r4
 1200bb8:	81400315 	stw	r5,12(r16)
 1200bbc:	82000215 	stw	r8,8(r16)
 1200bc0:	2088b03a 	or	r4,r4,r2
 1200bc4:	2c000215 	stw	r16,8(r5)
 1200bc8:	31000115 	stw	r4,4(r6)
 1200bcc:	44000315 	stw	r16,12(r8)
 1200bd0:	1805d0ba 	srai	r2,r3,2
 1200bd4:	01400044 	movi	r5,1
 1200bd8:	288a983a 	sll	r5,r5,r2
 1200bdc:	21404336 	bltu	r4,r5,1200cec <_malloc_r+0x304>
 1200be0:	2144703a 	and	r2,r4,r5
 1200be4:	10000a1e 	bne	r2,zero,1200c10 <_malloc_r+0x228>
 1200be8:	00bfff04 	movi	r2,-4
 1200bec:	294b883a 	add	r5,r5,r5
 1200bf0:	1886703a 	and	r3,r3,r2
 1200bf4:	2144703a 	and	r2,r4,r5
 1200bf8:	18c00104 	addi	r3,r3,4
 1200bfc:	1000041e 	bne	r2,zero,1200c10 <_malloc_r+0x228>
 1200c00:	294b883a 	add	r5,r5,r5
 1200c04:	2144703a 	and	r2,r4,r5
 1200c08:	18c00104 	addi	r3,r3,4
 1200c0c:	103ffc26 	beq	r2,zero,1200c00 <__alt_mem_instruction_tcm+0xff200c00>
 1200c10:	023fff04 	movi	r8,-4
 1200c14:	01c003c4 	movi	r7,15
 1200c18:	18c5883a 	add	r2,r3,r3
 1200c1c:	1085883a 	add	r2,r2,r2
 1200c20:	1085883a 	add	r2,r2,r2
 1200c24:	9895883a 	add	r10,r19,r2
 1200c28:	52c00304 	addi	r11,r10,12
 1200c2c:	1819883a 	mov	r12,r3
 1200c30:	5c000017 	ldw	r16,0(r11)
 1200c34:	59bffd04 	addi	r6,r11,-12
 1200c38:	8180041e 	bne	r16,r6,1200c4c <_malloc_r+0x264>
 1200c3c:	0000ce06 	br	1200f78 <_malloc_r+0x590>
 1200c40:	2000d70e 	bge	r4,zero,1200fa0 <_malloc_r+0x5b8>
 1200c44:	84000317 	ldw	r16,12(r16)
 1200c48:	8180cb26 	beq	r16,r6,1200f78 <_malloc_r+0x590>
 1200c4c:	80800117 	ldw	r2,4(r16)
 1200c50:	1204703a 	and	r2,r2,r8
 1200c54:	1449c83a 	sub	r4,r2,r17
 1200c58:	393ff90e 	bge	r7,r4,1200c40 <__alt_mem_instruction_tcm+0xff200c40>
 1200c5c:	80800317 	ldw	r2,12(r16)
 1200c60:	80c00217 	ldw	r3,8(r16)
 1200c64:	89400054 	ori	r5,r17,1
 1200c68:	81400115 	stw	r5,4(r16)
 1200c6c:	18800315 	stw	r2,12(r3)
 1200c70:	10c00215 	stw	r3,8(r2)
 1200c74:	8463883a 	add	r17,r16,r17
 1200c78:	9c400515 	stw	r17,20(r19)
 1200c7c:	9c400415 	stw	r17,16(r19)
 1200c80:	20800054 	ori	r2,r4,1
 1200c84:	88800115 	stw	r2,4(r17)
 1200c88:	8a400315 	stw	r9,12(r17)
 1200c8c:	8a400215 	stw	r9,8(r17)
 1200c90:	8923883a 	add	r17,r17,r4
 1200c94:	89000015 	stw	r4,0(r17)
 1200c98:	9009883a 	mov	r4,r18
 1200c9c:	12131740 	call	1213174 <__malloc_unlock>
 1200ca0:	80800204 	addi	r2,r16,8
 1200ca4:	003f7d06 	br	1200a9c <__alt_mem_instruction_tcm+0xff200a9c>
 1200ca8:	00800304 	movi	r2,12
 1200cac:	90800015 	stw	r2,0(r18)
 1200cb0:	0005883a 	mov	r2,zero
 1200cb4:	003f7906 	br	1200a9c <__alt_mem_instruction_tcm+0xff200a9c>
 1200cb8:	01401f84 	movi	r5,126
 1200cbc:	01c00fc4 	movi	r7,63
 1200cc0:	003f8d06 	br	1200af8 <__alt_mem_instruction_tcm+0xff200af8>
 1200cc4:	81000317 	ldw	r4,12(r16)
 1200cc8:	003f6a06 	br	1200a74 <__alt_mem_instruction_tcm+0xff200a74>
 1200ccc:	81c5883a 	add	r2,r16,r7
 1200cd0:	10c00117 	ldw	r3,4(r2)
 1200cd4:	9009883a 	mov	r4,r18
 1200cd8:	18c00054 	ori	r3,r3,1
 1200cdc:	10c00115 	stw	r3,4(r2)
 1200ce0:	12131740 	call	1213174 <__malloc_unlock>
 1200ce4:	80800204 	addi	r2,r16,8
 1200ce8:	003f6c06 	br	1200a9c <__alt_mem_instruction_tcm+0xff200a9c>
 1200cec:	9c000217 	ldw	r16,8(r19)
 1200cf0:	00bfff04 	movi	r2,-4
 1200cf4:	85800117 	ldw	r22,4(r16)
 1200cf8:	b0ac703a 	and	r22,r22,r2
 1200cfc:	b4400336 	bltu	r22,r17,1200d0c <_malloc_r+0x324>
 1200d00:	b445c83a 	sub	r2,r22,r17
 1200d04:	00c003c4 	movi	r3,15
 1200d08:	18805d16 	blt	r3,r2,1200e80 <_malloc_r+0x498>
 1200d0c:	05c048b4 	movhi	r23,290
 1200d10:	008048b4 	movhi	r2,290
 1200d14:	bdc84204 	addi	r23,r23,8456
 1200d18:	10887404 	addi	r2,r2,8656
 1200d1c:	15400017 	ldw	r21,0(r2)
 1200d20:	b9000017 	ldw	r4,0(r23)
 1200d24:	00ffffc4 	movi	r3,-1
 1200d28:	858d883a 	add	r6,r16,r22
 1200d2c:	8d6b883a 	add	r21,r17,r21
 1200d30:	20c0e426 	beq	r4,r3,12010c4 <_malloc_r+0x6dc>
 1200d34:	ad4403c4 	addi	r21,r21,4111
 1200d38:	00fc0004 	movi	r3,-4096
 1200d3c:	a8ea703a 	and	r21,r21,r3
 1200d40:	9009883a 	mov	r4,r18
 1200d44:	a80b883a 	mov	r5,r21
 1200d48:	d9800015 	stw	r6,0(sp)
 1200d4c:	12017640 	call	1201764 <_sbrk_r>
 1200d50:	00ffffc4 	movi	r3,-1
 1200d54:	1029883a 	mov	r20,r2
 1200d58:	d9800017 	ldw	r6,0(sp)
 1200d5c:	10c0a426 	beq	r2,r3,1200ff0 <_malloc_r+0x608>
 1200d60:	1180a236 	bltu	r2,r6,1200fec <_malloc_r+0x604>
 1200d64:	070048b4 	movhi	fp,290
 1200d68:	e7089804 	addi	fp,fp,8800
 1200d6c:	e0c00017 	ldw	r3,0(fp)
 1200d70:	a8c7883a 	add	r3,r21,r3
 1200d74:	e0c00015 	stw	r3,0(fp)
 1200d78:	3500da26 	beq	r6,r20,12010e4 <_malloc_r+0x6fc>
 1200d7c:	b9000017 	ldw	r4,0(r23)
 1200d80:	00bfffc4 	movi	r2,-1
 1200d84:	2080e426 	beq	r4,r2,1201118 <_malloc_r+0x730>
 1200d88:	a185c83a 	sub	r2,r20,r6
 1200d8c:	1885883a 	add	r2,r3,r2
 1200d90:	e0800015 	stw	r2,0(fp)
 1200d94:	a0c001cc 	andi	r3,r20,7
 1200d98:	1800b526 	beq	r3,zero,1201070 <_malloc_r+0x688>
 1200d9c:	a0e9c83a 	sub	r20,r20,r3
 1200da0:	00840204 	movi	r2,4104
 1200da4:	a5000204 	addi	r20,r20,8
 1200da8:	10c7c83a 	sub	r3,r2,r3
 1200dac:	a545883a 	add	r2,r20,r21
 1200db0:	1083ffcc 	andi	r2,r2,4095
 1200db4:	18abc83a 	sub	r21,r3,r2
 1200db8:	9009883a 	mov	r4,r18
 1200dbc:	a80b883a 	mov	r5,r21
 1200dc0:	12017640 	call	1201764 <_sbrk_r>
 1200dc4:	00ffffc4 	movi	r3,-1
 1200dc8:	10c0d026 	beq	r2,r3,120110c <_malloc_r+0x724>
 1200dcc:	1507c83a 	sub	r3,r2,r20
 1200dd0:	a8c7883a 	add	r3,r21,r3
 1200dd4:	18c00054 	ori	r3,r3,1
 1200dd8:	e0800017 	ldw	r2,0(fp)
 1200ddc:	9d000215 	stw	r20,8(r19)
 1200de0:	a0c00115 	stw	r3,4(r20)
 1200de4:	a887883a 	add	r3,r21,r2
 1200de8:	e0c00015 	stw	r3,0(fp)
 1200dec:	84c00e26 	beq	r16,r19,1200e28 <_malloc_r+0x440>
 1200df0:	018003c4 	movi	r6,15
 1200df4:	3580a02e 	bgeu	r6,r22,1201078 <_malloc_r+0x690>
 1200df8:	81400117 	ldw	r5,4(r16)
 1200dfc:	013ffe04 	movi	r4,-8
 1200e00:	b0bffd04 	addi	r2,r22,-12
 1200e04:	1104703a 	and	r2,r2,r4
 1200e08:	2900004c 	andi	r4,r5,1
 1200e0c:	1108b03a 	or	r4,r2,r4
 1200e10:	81000115 	stw	r4,4(r16)
 1200e14:	01400144 	movi	r5,5
 1200e18:	8089883a 	add	r4,r16,r2
 1200e1c:	21400115 	stw	r5,4(r4)
 1200e20:	21400215 	stw	r5,8(r4)
 1200e24:	3080c036 	bltu	r6,r2,1201128 <_malloc_r+0x740>
 1200e28:	008048b4 	movhi	r2,290
 1200e2c:	10887304 	addi	r2,r2,8652
 1200e30:	11000017 	ldw	r4,0(r2)
 1200e34:	20c0012e 	bgeu	r4,r3,1200e3c <_malloc_r+0x454>
 1200e38:	10c00015 	stw	r3,0(r2)
 1200e3c:	008048b4 	movhi	r2,290
 1200e40:	10887204 	addi	r2,r2,8648
 1200e44:	11000017 	ldw	r4,0(r2)
 1200e48:	9c000217 	ldw	r16,8(r19)
 1200e4c:	20c0012e 	bgeu	r4,r3,1200e54 <_malloc_r+0x46c>
 1200e50:	10c00015 	stw	r3,0(r2)
 1200e54:	80c00117 	ldw	r3,4(r16)
 1200e58:	00bfff04 	movi	r2,-4
 1200e5c:	1886703a 	and	r3,r3,r2
 1200e60:	1c45c83a 	sub	r2,r3,r17
 1200e64:	1c400236 	bltu	r3,r17,1200e70 <_malloc_r+0x488>
 1200e68:	00c003c4 	movi	r3,15
 1200e6c:	18800416 	blt	r3,r2,1200e80 <_malloc_r+0x498>
 1200e70:	9009883a 	mov	r4,r18
 1200e74:	12131740 	call	1213174 <__malloc_unlock>
 1200e78:	0005883a 	mov	r2,zero
 1200e7c:	003f0706 	br	1200a9c <__alt_mem_instruction_tcm+0xff200a9c>
 1200e80:	88c00054 	ori	r3,r17,1
 1200e84:	80c00115 	stw	r3,4(r16)
 1200e88:	8463883a 	add	r17,r16,r17
 1200e8c:	10800054 	ori	r2,r2,1
 1200e90:	9c400215 	stw	r17,8(r19)
 1200e94:	88800115 	stw	r2,4(r17)
 1200e98:	9009883a 	mov	r4,r18
 1200e9c:	12131740 	call	1213174 <__malloc_unlock>
 1200ea0:	80800204 	addi	r2,r16,8
 1200ea4:	003efd06 	br	1200a9c <__alt_mem_instruction_tcm+0xff200a9c>
 1200ea8:	00800504 	movi	r2,20
 1200eac:	10c0482e 	bgeu	r2,r3,1200fd0 <_malloc_r+0x5e8>
 1200eb0:	00801504 	movi	r2,84
 1200eb4:	10c06836 	bltu	r2,r3,1201058 <_malloc_r+0x670>
 1200eb8:	8806d33a 	srli	r3,r17,12
 1200ebc:	19c01b84 	addi	r7,r3,110
 1200ec0:	39cb883a 	add	r5,r7,r7
 1200ec4:	003f0c06 	br	1200af8 <__alt_mem_instruction_tcm+0xff200af8>
 1200ec8:	3804d27a 	srli	r2,r7,9
 1200ecc:	01000104 	movi	r4,4
 1200ed0:	2080422e 	bgeu	r4,r2,1200fdc <_malloc_r+0x5f4>
 1200ed4:	01000504 	movi	r4,20
 1200ed8:	20807c36 	bltu	r4,r2,12010cc <_malloc_r+0x6e4>
 1200edc:	110016c4 	addi	r4,r2,91
 1200ee0:	210b883a 	add	r5,r4,r4
 1200ee4:	294b883a 	add	r5,r5,r5
 1200ee8:	294b883a 	add	r5,r5,r5
 1200eec:	994b883a 	add	r5,r19,r5
 1200ef0:	28800217 	ldw	r2,8(r5)
 1200ef4:	020048b4 	movhi	r8,290
 1200ef8:	42025a04 	addi	r8,r8,2408
 1200efc:	11406326 	beq	r2,r5,120108c <_malloc_r+0x6a4>
 1200f00:	01bfff04 	movi	r6,-4
 1200f04:	11000117 	ldw	r4,4(r2)
 1200f08:	2188703a 	and	r4,r4,r6
 1200f0c:	3900022e 	bgeu	r7,r4,1200f18 <_malloc_r+0x530>
 1200f10:	10800217 	ldw	r2,8(r2)
 1200f14:	28bffb1e 	bne	r5,r2,1200f04 <__alt_mem_instruction_tcm+0xff200f04>
 1200f18:	11800317 	ldw	r6,12(r2)
 1200f1c:	99000117 	ldw	r4,4(r19)
 1200f20:	81800315 	stw	r6,12(r16)
 1200f24:	80800215 	stw	r2,8(r16)
 1200f28:	34000215 	stw	r16,8(r6)
 1200f2c:	14000315 	stw	r16,12(r2)
 1200f30:	003f2706 	br	1200bd0 <__alt_mem_instruction_tcm+0xff200bd0>
 1200f34:	88c00054 	ori	r3,r17,1
 1200f38:	80c00115 	stw	r3,4(r16)
 1200f3c:	8463883a 	add	r17,r16,r17
 1200f40:	34400515 	stw	r17,20(r6)
 1200f44:	34400415 	stw	r17,16(r6)
 1200f48:	10c00054 	ori	r3,r2,1
 1200f4c:	8a400315 	stw	r9,12(r17)
 1200f50:	8a400215 	stw	r9,8(r17)
 1200f54:	88c00115 	stw	r3,4(r17)
 1200f58:	88a3883a 	add	r17,r17,r2
 1200f5c:	88800015 	stw	r2,0(r17)
 1200f60:	9009883a 	mov	r4,r18
 1200f64:	12131740 	call	1213174 <__malloc_unlock>
 1200f68:	80800204 	addi	r2,r16,8
 1200f6c:	003ecb06 	br	1200a9c <__alt_mem_instruction_tcm+0xff200a9c>
 1200f70:	31000117 	ldw	r4,4(r6)
 1200f74:	003f1606 	br	1200bd0 <__alt_mem_instruction_tcm+0xff200bd0>
 1200f78:	63000044 	addi	r12,r12,1
 1200f7c:	608000cc 	andi	r2,r12,3
 1200f80:	5ac00204 	addi	r11,r11,8
 1200f84:	103f2a1e 	bne	r2,zero,1200c30 <__alt_mem_instruction_tcm+0xff200c30>
 1200f88:	00002106 	br	1201010 <_malloc_r+0x628>
 1200f8c:	80800204 	addi	r2,r16,8
 1200f90:	84000517 	ldw	r16,20(r16)
 1200f94:	143eb31e 	bne	r2,r16,1200a64 <__alt_mem_instruction_tcm+0xff200a64>
 1200f98:	18c00084 	addi	r3,r3,2
 1200f9c:	003eec06 	br	1200b50 <__alt_mem_instruction_tcm+0xff200b50>
 1200fa0:	8085883a 	add	r2,r16,r2
 1200fa4:	10c00117 	ldw	r3,4(r2)
 1200fa8:	81000317 	ldw	r4,12(r16)
 1200fac:	81400217 	ldw	r5,8(r16)
 1200fb0:	18c00054 	ori	r3,r3,1
 1200fb4:	10c00115 	stw	r3,4(r2)
 1200fb8:	29000315 	stw	r4,12(r5)
 1200fbc:	21400215 	stw	r5,8(r4)
 1200fc0:	9009883a 	mov	r4,r18
 1200fc4:	12131740 	call	1213174 <__malloc_unlock>
 1200fc8:	80800204 	addi	r2,r16,8
 1200fcc:	003eb306 	br	1200a9c <__alt_mem_instruction_tcm+0xff200a9c>
 1200fd0:	19c016c4 	addi	r7,r3,91
 1200fd4:	39cb883a 	add	r5,r7,r7
 1200fd8:	003ec706 	br	1200af8 <__alt_mem_instruction_tcm+0xff200af8>
 1200fdc:	3804d1ba 	srli	r2,r7,6
 1200fe0:	11000e04 	addi	r4,r2,56
 1200fe4:	210b883a 	add	r5,r4,r4
 1200fe8:	003fbe06 	br	1200ee4 <__alt_mem_instruction_tcm+0xff200ee4>
 1200fec:	84ff5d26 	beq	r16,r19,1200d64 <__alt_mem_instruction_tcm+0xff200d64>
 1200ff0:	9c000217 	ldw	r16,8(r19)
 1200ff4:	00bfff04 	movi	r2,-4
 1200ff8:	80c00117 	ldw	r3,4(r16)
 1200ffc:	1886703a 	and	r3,r3,r2
 1201000:	003f9706 	br	1200e60 <__alt_mem_instruction_tcm+0xff200e60>
 1201004:	52800017 	ldw	r10,0(r10)
 1201008:	18ffffc4 	addi	r3,r3,-1
 120100c:	50805c1e 	bne	r10,r2,1201180 <_malloc_r+0x798>
 1201010:	190000cc 	andi	r4,r3,3
 1201014:	50bffe04 	addi	r2,r10,-8
 1201018:	203ffa1e 	bne	r4,zero,1201004 <__alt_mem_instruction_tcm+0xff201004>
 120101c:	98800117 	ldw	r2,4(r19)
 1201020:	0146303a 	nor	r3,zero,r5
 1201024:	1884703a 	and	r2,r3,r2
 1201028:	98800115 	stw	r2,4(r19)
 120102c:	294b883a 	add	r5,r5,r5
 1201030:	117f2e36 	bltu	r2,r5,1200cec <__alt_mem_instruction_tcm+0xff200cec>
 1201034:	283f2d26 	beq	r5,zero,1200cec <__alt_mem_instruction_tcm+0xff200cec>
 1201038:	1146703a 	and	r3,r2,r5
 120103c:	1800521e 	bne	r3,zero,1201188 <_malloc_r+0x7a0>
 1201040:	6007883a 	mov	r3,r12
 1201044:	294b883a 	add	r5,r5,r5
 1201048:	1148703a 	and	r4,r2,r5
 120104c:	18c00104 	addi	r3,r3,4
 1201050:	203ffc26 	beq	r4,zero,1201044 <__alt_mem_instruction_tcm+0xff201044>
 1201054:	003ef006 	br	1200c18 <__alt_mem_instruction_tcm+0xff200c18>
 1201058:	00805504 	movi	r2,340
 120105c:	10c01336 	bltu	r2,r3,12010ac <_malloc_r+0x6c4>
 1201060:	8806d3fa 	srli	r3,r17,15
 1201064:	19c01dc4 	addi	r7,r3,119
 1201068:	39cb883a 	add	r5,r7,r7
 120106c:	003ea206 	br	1200af8 <__alt_mem_instruction_tcm+0xff200af8>
 1201070:	00c40004 	movi	r3,4096
 1201074:	003f4d06 	br	1200dac <__alt_mem_instruction_tcm+0xff200dac>
 1201078:	00800044 	movi	r2,1
 120107c:	a0800115 	stw	r2,4(r20)
 1201080:	a021883a 	mov	r16,r20
 1201084:	0007883a 	mov	r3,zero
 1201088:	003f7506 	br	1200e60 <__alt_mem_instruction_tcm+0xff200e60>
 120108c:	200bd0ba 	srai	r5,r4,2
 1201090:	01800044 	movi	r6,1
 1201094:	41000117 	ldw	r4,4(r8)
 1201098:	314a983a 	sll	r5,r6,r5
 120109c:	100d883a 	mov	r6,r2
 12010a0:	2908b03a 	or	r4,r5,r4
 12010a4:	41000115 	stw	r4,4(r8)
 12010a8:	003f9d06 	br	1200f20 <__alt_mem_instruction_tcm+0xff200f20>
 12010ac:	00815504 	movi	r2,1364
 12010b0:	10c01336 	bltu	r2,r3,1201100 <_malloc_r+0x718>
 12010b4:	8806d4ba 	srli	r3,r17,18
 12010b8:	19c01f04 	addi	r7,r3,124
 12010bc:	39cb883a 	add	r5,r7,r7
 12010c0:	003e8d06 	br	1200af8 <__alt_mem_instruction_tcm+0xff200af8>
 12010c4:	ad400404 	addi	r21,r21,16
 12010c8:	003f1d06 	br	1200d40 <__alt_mem_instruction_tcm+0xff200d40>
 12010cc:	01001504 	movi	r4,84
 12010d0:	20801c36 	bltu	r4,r2,1201144 <_malloc_r+0x75c>
 12010d4:	3804d33a 	srli	r2,r7,12
 12010d8:	11001b84 	addi	r4,r2,110
 12010dc:	210b883a 	add	r5,r4,r4
 12010e0:	003f8006 	br	1200ee4 <__alt_mem_instruction_tcm+0xff200ee4>
 12010e4:	3083ffcc 	andi	r2,r6,4095
 12010e8:	103f241e 	bne	r2,zero,1200d7c <__alt_mem_instruction_tcm+0xff200d7c>
 12010ec:	99000217 	ldw	r4,8(r19)
 12010f0:	ad85883a 	add	r2,r21,r22
 12010f4:	10800054 	ori	r2,r2,1
 12010f8:	20800115 	stw	r2,4(r4)
 12010fc:	003f4a06 	br	1200e28 <__alt_mem_instruction_tcm+0xff200e28>
 1201100:	01403f04 	movi	r5,252
 1201104:	01c01f84 	movi	r7,126
 1201108:	003e7b06 	br	1200af8 <__alt_mem_instruction_tcm+0xff200af8>
 120110c:	00c00044 	movi	r3,1
 1201110:	002b883a 	mov	r21,zero
 1201114:	003f3006 	br	1200dd8 <__alt_mem_instruction_tcm+0xff200dd8>
 1201118:	008048b4 	movhi	r2,290
 120111c:	10884204 	addi	r2,r2,8456
 1201120:	15000015 	stw	r20,0(r2)
 1201124:	003f1b06 	br	1200d94 <__alt_mem_instruction_tcm+0xff200d94>
 1201128:	9009883a 	mov	r4,r18
 120112c:	81400204 	addi	r5,r16,8
 1201130:	12037280 	call	1203728 <_free_r>
 1201134:	008048b4 	movhi	r2,290
 1201138:	10889804 	addi	r2,r2,8800
 120113c:	10c00017 	ldw	r3,0(r2)
 1201140:	003f3906 	br	1200e28 <__alt_mem_instruction_tcm+0xff200e28>
 1201144:	01005504 	movi	r4,340
 1201148:	20800436 	bltu	r4,r2,120115c <_malloc_r+0x774>
 120114c:	3804d3fa 	srli	r2,r7,15
 1201150:	11001dc4 	addi	r4,r2,119
 1201154:	210b883a 	add	r5,r4,r4
 1201158:	003f6206 	br	1200ee4 <__alt_mem_instruction_tcm+0xff200ee4>
 120115c:	01015504 	movi	r4,1364
 1201160:	20800436 	bltu	r4,r2,1201174 <_malloc_r+0x78c>
 1201164:	3804d4ba 	srli	r2,r7,18
 1201168:	11001f04 	addi	r4,r2,124
 120116c:	210b883a 	add	r5,r4,r4
 1201170:	003f5c06 	br	1200ee4 <__alt_mem_instruction_tcm+0xff200ee4>
 1201174:	01403f04 	movi	r5,252
 1201178:	01001f84 	movi	r4,126
 120117c:	003f5906 	br	1200ee4 <__alt_mem_instruction_tcm+0xff200ee4>
 1201180:	98800117 	ldw	r2,4(r19)
 1201184:	003fa906 	br	120102c <__alt_mem_instruction_tcm+0xff20102c>
 1201188:	6007883a 	mov	r3,r12
 120118c:	003ea206 	br	1200c18 <__alt_mem_instruction_tcm+0xff200c18>

01201190 <memchr>:
 1201190:	208000cc 	andi	r2,r4,3
 1201194:	280f883a 	mov	r7,r5
 1201198:	10003526 	beq	r2,zero,1201270 <memchr+0xe0>
 120119c:	30bfffc4 	addi	r2,r6,-1
 12011a0:	30001b26 	beq	r6,zero,1201210 <memchr+0x80>
 12011a4:	21800003 	ldbu	r6,0(r4)
 12011a8:	28c03fcc 	andi	r3,r5,255
 12011ac:	30c01a26 	beq	r6,r3,1201218 <memchr+0x88>
 12011b0:	180d883a 	mov	r6,r3
 12011b4:	00000406 	br	12011c8 <memchr+0x38>
 12011b8:	10001526 	beq	r2,zero,1201210 <memchr+0x80>
 12011bc:	20c00003 	ldbu	r3,0(r4)
 12011c0:	10bfffc4 	addi	r2,r2,-1
 12011c4:	19801426 	beq	r3,r6,1201218 <memchr+0x88>
 12011c8:	21000044 	addi	r4,r4,1
 12011cc:	20c000cc 	andi	r3,r4,3
 12011d0:	183ff91e 	bne	r3,zero,12011b8 <__alt_mem_instruction_tcm+0xff2011b8>
 12011d4:	024000c4 	movi	r9,3
 12011d8:	48801136 	bltu	r9,r2,1201220 <memchr+0x90>
 12011dc:	10000c26 	beq	r2,zero,1201210 <memchr+0x80>
 12011e0:	20c00003 	ldbu	r3,0(r4)
 12011e4:	29403fcc 	andi	r5,r5,255
 12011e8:	19400b26 	beq	r3,r5,1201218 <memchr+0x88>
 12011ec:	20c00044 	addi	r3,r4,1
 12011f0:	2085883a 	add	r2,r4,r2
 12011f4:	39803fcc 	andi	r6,r7,255
 12011f8:	00000306 	br	1201208 <memchr+0x78>
 12011fc:	18c00044 	addi	r3,r3,1
 1201200:	197fffc3 	ldbu	r5,-1(r3)
 1201204:	29800426 	beq	r5,r6,1201218 <memchr+0x88>
 1201208:	1809883a 	mov	r4,r3
 120120c:	18bffb1e 	bne	r3,r2,12011fc <__alt_mem_instruction_tcm+0xff2011fc>
 1201210:	0005883a 	mov	r2,zero
 1201214:	f800283a 	ret
 1201218:	2005883a 	mov	r2,r4
 120121c:	f800283a 	ret
 1201220:	28c03fcc 	andi	r3,r5,255
 1201224:	1810923a 	slli	r8,r3,8
 1201228:	02ffbff4 	movhi	r11,65279
 120122c:	02a02074 	movhi	r10,32897
 1201230:	40c6b03a 	or	r3,r8,r3
 1201234:	1810943a 	slli	r8,r3,16
 1201238:	5affbfc4 	addi	r11,r11,-257
 120123c:	52a02004 	addi	r10,r10,-32640
 1201240:	40d0b03a 	or	r8,r8,r3
 1201244:	20c00017 	ldw	r3,0(r4)
 1201248:	40c6f03a 	xor	r3,r8,r3
 120124c:	1acd883a 	add	r6,r3,r11
 1201250:	00c6303a 	nor	r3,zero,r3
 1201254:	30c6703a 	and	r3,r6,r3
 1201258:	1a86703a 	and	r3,r3,r10
 120125c:	183fdf1e 	bne	r3,zero,12011dc <__alt_mem_instruction_tcm+0xff2011dc>
 1201260:	10bfff04 	addi	r2,r2,-4
 1201264:	21000104 	addi	r4,r4,4
 1201268:	48bff636 	bltu	r9,r2,1201244 <__alt_mem_instruction_tcm+0xff201244>
 120126c:	003fdb06 	br	12011dc <__alt_mem_instruction_tcm+0xff2011dc>
 1201270:	3005883a 	mov	r2,r6
 1201274:	003fd706 	br	12011d4 <__alt_mem_instruction_tcm+0xff2011d4>

01201278 <memcpy>:
 1201278:	deffff04 	addi	sp,sp,-4
 120127c:	dc000015 	stw	r16,0(sp)
 1201280:	00c003c4 	movi	r3,15
 1201284:	2005883a 	mov	r2,r4
 1201288:	1980432e 	bgeu	r3,r6,1201398 <memcpy+0x120>
 120128c:	2146b03a 	or	r3,r4,r5
 1201290:	18c000cc 	andi	r3,r3,3
 1201294:	1800421e 	bne	r3,zero,12013a0 <memcpy+0x128>
 1201298:	343ffc04 	addi	r16,r6,-16
 120129c:	8020d13a 	srli	r16,r16,4
 12012a0:	28c00104 	addi	r3,r5,4
 12012a4:	23400104 	addi	r13,r4,4
 12012a8:	801e913a 	slli	r15,r16,4
 12012ac:	2b000204 	addi	r12,r5,8
 12012b0:	22c00204 	addi	r11,r4,8
 12012b4:	7bc00504 	addi	r15,r15,20
 12012b8:	2a800304 	addi	r10,r5,12
 12012bc:	22400304 	addi	r9,r4,12
 12012c0:	2bdf883a 	add	r15,r5,r15
 12012c4:	2811883a 	mov	r8,r5
 12012c8:	200f883a 	mov	r7,r4
 12012cc:	41000017 	ldw	r4,0(r8)
 12012d0:	39c00404 	addi	r7,r7,16
 12012d4:	18c00404 	addi	r3,r3,16
 12012d8:	393ffc15 	stw	r4,-16(r7)
 12012dc:	1bbffc17 	ldw	r14,-16(r3)
 12012e0:	6b400404 	addi	r13,r13,16
 12012e4:	5ac00404 	addi	r11,r11,16
 12012e8:	6bbffc15 	stw	r14,-16(r13)
 12012ec:	63800017 	ldw	r14,0(r12)
 12012f0:	4a400404 	addi	r9,r9,16
 12012f4:	42000404 	addi	r8,r8,16
 12012f8:	5bbffc15 	stw	r14,-16(r11)
 12012fc:	53800017 	ldw	r14,0(r10)
 1201300:	63000404 	addi	r12,r12,16
 1201304:	52800404 	addi	r10,r10,16
 1201308:	4bbffc15 	stw	r14,-16(r9)
 120130c:	1bffef1e 	bne	r3,r15,12012cc <__alt_mem_instruction_tcm+0xff2012cc>
 1201310:	81c00044 	addi	r7,r16,1
 1201314:	380e913a 	slli	r7,r7,4
 1201318:	310003cc 	andi	r4,r6,15
 120131c:	02c000c4 	movi	r11,3
 1201320:	11c7883a 	add	r3,r2,r7
 1201324:	29cb883a 	add	r5,r5,r7
 1201328:	59001f2e 	bgeu	r11,r4,12013a8 <memcpy+0x130>
 120132c:	1813883a 	mov	r9,r3
 1201330:	2811883a 	mov	r8,r5
 1201334:	200f883a 	mov	r7,r4
 1201338:	42800017 	ldw	r10,0(r8)
 120133c:	4a400104 	addi	r9,r9,4
 1201340:	39ffff04 	addi	r7,r7,-4
 1201344:	4abfff15 	stw	r10,-4(r9)
 1201348:	42000104 	addi	r8,r8,4
 120134c:	59fffa36 	bltu	r11,r7,1201338 <__alt_mem_instruction_tcm+0xff201338>
 1201350:	213fff04 	addi	r4,r4,-4
 1201354:	2008d0ba 	srli	r4,r4,2
 1201358:	318000cc 	andi	r6,r6,3
 120135c:	21000044 	addi	r4,r4,1
 1201360:	2109883a 	add	r4,r4,r4
 1201364:	2109883a 	add	r4,r4,r4
 1201368:	1907883a 	add	r3,r3,r4
 120136c:	290b883a 	add	r5,r5,r4
 1201370:	30000626 	beq	r6,zero,120138c <memcpy+0x114>
 1201374:	198d883a 	add	r6,r3,r6
 1201378:	29c00003 	ldbu	r7,0(r5)
 120137c:	18c00044 	addi	r3,r3,1
 1201380:	29400044 	addi	r5,r5,1
 1201384:	19ffffc5 	stb	r7,-1(r3)
 1201388:	19bffb1e 	bne	r3,r6,1201378 <__alt_mem_instruction_tcm+0xff201378>
 120138c:	dc000017 	ldw	r16,0(sp)
 1201390:	dec00104 	addi	sp,sp,4
 1201394:	f800283a 	ret
 1201398:	2007883a 	mov	r3,r4
 120139c:	003ff406 	br	1201370 <__alt_mem_instruction_tcm+0xff201370>
 12013a0:	2007883a 	mov	r3,r4
 12013a4:	003ff306 	br	1201374 <__alt_mem_instruction_tcm+0xff201374>
 12013a8:	200d883a 	mov	r6,r4
 12013ac:	003ff006 	br	1201370 <__alt_mem_instruction_tcm+0xff201370>

012013b0 <memset>:
 12013b0:	20c000cc 	andi	r3,r4,3
 12013b4:	2005883a 	mov	r2,r4
 12013b8:	18004326 	beq	r3,zero,12014c8 <memset+0x118>
 12013bc:	31ffffc4 	addi	r7,r6,-1
 12013c0:	30004026 	beq	r6,zero,12014c4 <memset+0x114>
 12013c4:	2813883a 	mov	r9,r5
 12013c8:	200d883a 	mov	r6,r4
 12013cc:	2007883a 	mov	r3,r4
 12013d0:	00000406 	br	12013e4 <memset+0x34>
 12013d4:	3a3fffc4 	addi	r8,r7,-1
 12013d8:	31800044 	addi	r6,r6,1
 12013dc:	38003926 	beq	r7,zero,12014c4 <memset+0x114>
 12013e0:	400f883a 	mov	r7,r8
 12013e4:	18c00044 	addi	r3,r3,1
 12013e8:	32400005 	stb	r9,0(r6)
 12013ec:	1a0000cc 	andi	r8,r3,3
 12013f0:	403ff81e 	bne	r8,zero,12013d4 <__alt_mem_instruction_tcm+0xff2013d4>
 12013f4:	010000c4 	movi	r4,3
 12013f8:	21c02d2e 	bgeu	r4,r7,12014b0 <memset+0x100>
 12013fc:	29803fcc 	andi	r6,r5,255
 1201400:	3008923a 	slli	r4,r6,8
 1201404:	218cb03a 	or	r6,r4,r6
 1201408:	3008943a 	slli	r4,r6,16
 120140c:	218cb03a 	or	r6,r4,r6
 1201410:	010003c4 	movi	r4,15
 1201414:	21c0182e 	bgeu	r4,r7,1201478 <memset+0xc8>
 1201418:	3b3ffc04 	addi	r12,r7,-16
 120141c:	6018d13a 	srli	r12,r12,4
 1201420:	1a000104 	addi	r8,r3,4
 1201424:	1ac00204 	addi	r11,r3,8
 1201428:	6008913a 	slli	r4,r12,4
 120142c:	1a800304 	addi	r10,r3,12
 1201430:	1813883a 	mov	r9,r3
 1201434:	21000504 	addi	r4,r4,20
 1201438:	1909883a 	add	r4,r3,r4
 120143c:	49800015 	stw	r6,0(r9)
 1201440:	41800015 	stw	r6,0(r8)
 1201444:	59800015 	stw	r6,0(r11)
 1201448:	51800015 	stw	r6,0(r10)
 120144c:	42000404 	addi	r8,r8,16
 1201450:	4a400404 	addi	r9,r9,16
 1201454:	5ac00404 	addi	r11,r11,16
 1201458:	52800404 	addi	r10,r10,16
 120145c:	413ff71e 	bne	r8,r4,120143c <__alt_mem_instruction_tcm+0xff20143c>
 1201460:	63000044 	addi	r12,r12,1
 1201464:	6018913a 	slli	r12,r12,4
 1201468:	39c003cc 	andi	r7,r7,15
 120146c:	010000c4 	movi	r4,3
 1201470:	1b07883a 	add	r3,r3,r12
 1201474:	21c00e2e 	bgeu	r4,r7,12014b0 <memset+0x100>
 1201478:	1813883a 	mov	r9,r3
 120147c:	3811883a 	mov	r8,r7
 1201480:	010000c4 	movi	r4,3
 1201484:	49800015 	stw	r6,0(r9)
 1201488:	423fff04 	addi	r8,r8,-4
 120148c:	4a400104 	addi	r9,r9,4
 1201490:	223ffc36 	bltu	r4,r8,1201484 <__alt_mem_instruction_tcm+0xff201484>
 1201494:	393fff04 	addi	r4,r7,-4
 1201498:	2008d0ba 	srli	r4,r4,2
 120149c:	39c000cc 	andi	r7,r7,3
 12014a0:	21000044 	addi	r4,r4,1
 12014a4:	2109883a 	add	r4,r4,r4
 12014a8:	2109883a 	add	r4,r4,r4
 12014ac:	1907883a 	add	r3,r3,r4
 12014b0:	38000426 	beq	r7,zero,12014c4 <memset+0x114>
 12014b4:	19cf883a 	add	r7,r3,r7
 12014b8:	19400005 	stb	r5,0(r3)
 12014bc:	18c00044 	addi	r3,r3,1
 12014c0:	19fffd1e 	bne	r3,r7,12014b8 <__alt_mem_instruction_tcm+0xff2014b8>
 12014c4:	f800283a 	ret
 12014c8:	2007883a 	mov	r3,r4
 12014cc:	300f883a 	mov	r7,r6
 12014d0:	003fc806 	br	12013f4 <__alt_mem_instruction_tcm+0xff2013f4>

012014d4 <_puts_r>:
 12014d4:	defff604 	addi	sp,sp,-40
 12014d8:	dc000715 	stw	r16,28(sp)
 12014dc:	2021883a 	mov	r16,r4
 12014e0:	2809883a 	mov	r4,r5
 12014e4:	dc400815 	stw	r17,32(sp)
 12014e8:	dfc00915 	stw	ra,36(sp)
 12014ec:	2823883a 	mov	r17,r5
 12014f0:	12019e80 	call	12019e8 <strlen>
 12014f4:	00c048b4 	movhi	r3,290
 12014f8:	18c84104 	addi	r3,r3,8452
 12014fc:	18c00017 	ldw	r3,0(r3)
 1201500:	11000044 	addi	r4,r2,1
 1201504:	d8800115 	stw	r2,4(sp)
 1201508:	18c00217 	ldw	r3,8(r3)
 120150c:	014048b4 	movhi	r5,290
 1201510:	297f7d04 	addi	r5,r5,-524
 1201514:	1880030b 	ldhu	r2,12(r3)
 1201518:	d9400215 	stw	r5,8(sp)
 120151c:	d9000615 	stw	r4,24(sp)
 1201520:	01400044 	movi	r5,1
 1201524:	01000084 	movi	r4,2
 1201528:	d9000515 	stw	r4,20(sp)
 120152c:	dc400015 	stw	r17,0(sp)
 1201530:	d9400315 	stw	r5,12(sp)
 1201534:	dec00415 	stw	sp,16(sp)
 1201538:	1108000c 	andi	r4,r2,8192
 120153c:	2000061e 	bne	r4,zero,1201558 <_puts_r+0x84>
 1201540:	19401917 	ldw	r5,100(r3)
 1201544:	0137ffc4 	movi	r4,-8193
 1201548:	10880014 	ori	r2,r2,8192
 120154c:	2908703a 	and	r4,r5,r4
 1201550:	1880030d 	sth	r2,12(r3)
 1201554:	19001915 	stw	r4,100(r3)
 1201558:	81400217 	ldw	r5,8(r16)
 120155c:	8009883a 	mov	r4,r16
 1201560:	d9800404 	addi	r6,sp,16
 1201564:	1203a180 	call	1203a18 <__sfvwrite_r>
 1201568:	1000061e 	bne	r2,zero,1201584 <_puts_r+0xb0>
 120156c:	00800284 	movi	r2,10
 1201570:	dfc00917 	ldw	ra,36(sp)
 1201574:	dc400817 	ldw	r17,32(sp)
 1201578:	dc000717 	ldw	r16,28(sp)
 120157c:	dec00a04 	addi	sp,sp,40
 1201580:	f800283a 	ret
 1201584:	00bfffc4 	movi	r2,-1
 1201588:	003ff906 	br	1201570 <__alt_mem_instruction_tcm+0xff201570>

0120158c <puts>:
 120158c:	008048b4 	movhi	r2,290
 1201590:	10884104 	addi	r2,r2,8452
 1201594:	200b883a 	mov	r5,r4
 1201598:	11000017 	ldw	r4,0(r2)
 120159c:	12014d41 	jmpi	12014d4 <_puts_r>

012015a0 <lflush>:
 12015a0:	2080030b 	ldhu	r2,12(r4)
 12015a4:	00c00244 	movi	r3,9
 12015a8:	1080024c 	andi	r2,r2,9
 12015ac:	10c00226 	beq	r2,r3,12015b8 <lflush+0x18>
 12015b0:	0005883a 	mov	r2,zero
 12015b4:	f800283a 	ret
 12015b8:	12035d41 	jmpi	12035d4 <fflush>

012015bc <__srefill_r>:
 12015bc:	defffd04 	addi	sp,sp,-12
 12015c0:	dc400115 	stw	r17,4(sp)
 12015c4:	dc000015 	stw	r16,0(sp)
 12015c8:	dfc00215 	stw	ra,8(sp)
 12015cc:	2023883a 	mov	r17,r4
 12015d0:	2821883a 	mov	r16,r5
 12015d4:	20000226 	beq	r4,zero,12015e0 <__srefill_r+0x24>
 12015d8:	20800e17 	ldw	r2,56(r4)
 12015dc:	10003b26 	beq	r2,zero,12016cc <__srefill_r+0x110>
 12015e0:	80c0030b 	ldhu	r3,12(r16)
 12015e4:	1908000c 	andi	r4,r3,8192
 12015e8:	1805883a 	mov	r2,r3
 12015ec:	2000071e 	bne	r4,zero,120160c <__srefill_r+0x50>
 12015f0:	81001917 	ldw	r4,100(r16)
 12015f4:	18880014 	ori	r2,r3,8192
 12015f8:	00f7ffc4 	movi	r3,-8193
 12015fc:	20c8703a 	and	r4,r4,r3
 1201600:	8080030d 	sth	r2,12(r16)
 1201604:	1007883a 	mov	r3,r2
 1201608:	81001915 	stw	r4,100(r16)
 120160c:	80000115 	stw	zero,4(r16)
 1201610:	1100080c 	andi	r4,r2,32
 1201614:	20004d1e 	bne	r4,zero,120174c <__srefill_r+0x190>
 1201618:	1100010c 	andi	r4,r2,4
 120161c:	20001e26 	beq	r4,zero,1201698 <__srefill_r+0xdc>
 1201620:	81400c17 	ldw	r5,48(r16)
 1201624:	28000826 	beq	r5,zero,1201648 <__srefill_r+0x8c>
 1201628:	80801004 	addi	r2,r16,64
 120162c:	28800226 	beq	r5,r2,1201638 <__srefill_r+0x7c>
 1201630:	8809883a 	mov	r4,r17
 1201634:	12037280 	call	1203728 <_free_r>
 1201638:	80800f17 	ldw	r2,60(r16)
 120163c:	80000c15 	stw	zero,48(r16)
 1201640:	80800115 	stw	r2,4(r16)
 1201644:	10002f1e 	bne	r2,zero,1201704 <__srefill_r+0x148>
 1201648:	80800417 	ldw	r2,16(r16)
 120164c:	10004126 	beq	r2,zero,1201754 <__srefill_r+0x198>
 1201650:	8080030b 	ldhu	r2,12(r16)
 1201654:	108000cc 	andi	r2,r2,3
 1201658:	10001e1e 	bne	r2,zero,12016d4 <__srefill_r+0x118>
 120165c:	81800417 	ldw	r6,16(r16)
 1201660:	80800817 	ldw	r2,32(r16)
 1201664:	81400717 	ldw	r5,28(r16)
 1201668:	81c00517 	ldw	r7,20(r16)
 120166c:	81800015 	stw	r6,0(r16)
 1201670:	8809883a 	mov	r4,r17
 1201674:	103ee83a 	callr	r2
 1201678:	80800115 	stw	r2,4(r16)
 120167c:	00800d0e 	bge	zero,r2,12016b4 <__srefill_r+0xf8>
 1201680:	0005883a 	mov	r2,zero
 1201684:	dfc00217 	ldw	ra,8(sp)
 1201688:	dc400117 	ldw	r17,4(sp)
 120168c:	dc000017 	ldw	r16,0(sp)
 1201690:	dec00304 	addi	sp,sp,12
 1201694:	f800283a 	ret
 1201698:	1100040c 	andi	r4,r2,16
 120169c:	20002726 	beq	r4,zero,120173c <__srefill_r+0x180>
 12016a0:	1080020c 	andi	r2,r2,8
 12016a4:	10001b1e 	bne	r2,zero,1201714 <__srefill_r+0x158>
 12016a8:	18c00114 	ori	r3,r3,4
 12016ac:	80c0030d 	sth	r3,12(r16)
 12016b0:	003fe506 	br	1201648 <__alt_mem_instruction_tcm+0xff201648>
 12016b4:	80c0030b 	ldhu	r3,12(r16)
 12016b8:	10000d1e 	bne	r2,zero,12016f0 <__srefill_r+0x134>
 12016bc:	18c00814 	ori	r3,r3,32
 12016c0:	00bfffc4 	movi	r2,-1
 12016c4:	80c0030d 	sth	r3,12(r16)
 12016c8:	003fee06 	br	1201684 <__alt_mem_instruction_tcm+0xff201684>
 12016cc:	12008280 	call	1200828 <__sinit>
 12016d0:	003fc306 	br	12015e0 <__alt_mem_instruction_tcm+0xff2015e0>
 12016d4:	008048b4 	movhi	r2,290
 12016d8:	10884004 	addi	r2,r2,8448
 12016dc:	11000017 	ldw	r4,0(r2)
 12016e0:	01404834 	movhi	r5,288
 12016e4:	29456804 	addi	r5,r5,5536
 12016e8:	12008780 	call	1200878 <_fwalk>
 12016ec:	003fdb06 	br	120165c <__alt_mem_instruction_tcm+0xff20165c>
 12016f0:	18c01014 	ori	r3,r3,64
 12016f4:	80000115 	stw	zero,4(r16)
 12016f8:	00bfffc4 	movi	r2,-1
 12016fc:	80c0030d 	sth	r3,12(r16)
 1201700:	003fe006 	br	1201684 <__alt_mem_instruction_tcm+0xff201684>
 1201704:	80c00e17 	ldw	r3,56(r16)
 1201708:	0005883a 	mov	r2,zero
 120170c:	80c00015 	stw	r3,0(r16)
 1201710:	003fdc06 	br	1201684 <__alt_mem_instruction_tcm+0xff201684>
 1201714:	8809883a 	mov	r4,r17
 1201718:	800b883a 	mov	r5,r16
 120171c:	12033ac0 	call	12033ac <_fflush_r>
 1201720:	10000a1e 	bne	r2,zero,120174c <__srefill_r+0x190>
 1201724:	8080030b 	ldhu	r2,12(r16)
 1201728:	00fffdc4 	movi	r3,-9
 120172c:	80000215 	stw	zero,8(r16)
 1201730:	1886703a 	and	r3,r3,r2
 1201734:	80000615 	stw	zero,24(r16)
 1201738:	003fdb06 	br	12016a8 <__alt_mem_instruction_tcm+0xff2016a8>
 120173c:	00800244 	movi	r2,9
 1201740:	88800015 	stw	r2,0(r17)
 1201744:	18c01014 	ori	r3,r3,64
 1201748:	80c0030d 	sth	r3,12(r16)
 120174c:	00bfffc4 	movi	r2,-1
 1201750:	003fcc06 	br	1201684 <__alt_mem_instruction_tcm+0xff201684>
 1201754:	8809883a 	mov	r4,r17
 1201758:	800b883a 	mov	r5,r16
 120175c:	12040280 	call	1204028 <__smakebuf_r>
 1201760:	003fbb06 	br	1201650 <__alt_mem_instruction_tcm+0xff201650>

01201764 <_sbrk_r>:
 1201764:	defffd04 	addi	sp,sp,-12
 1201768:	dc000015 	stw	r16,0(sp)
 120176c:	040048b4 	movhi	r16,290
 1201770:	dc400115 	stw	r17,4(sp)
 1201774:	84087504 	addi	r16,r16,8660
 1201778:	2023883a 	mov	r17,r4
 120177c:	2809883a 	mov	r4,r5
 1201780:	dfc00215 	stw	ra,8(sp)
 1201784:	80000015 	stw	zero,0(r16)
 1201788:	1212d400 	call	1212d40 <sbrk>
 120178c:	00ffffc4 	movi	r3,-1
 1201790:	10c00526 	beq	r2,r3,12017a8 <_sbrk_r+0x44>
 1201794:	dfc00217 	ldw	ra,8(sp)
 1201798:	dc400117 	ldw	r17,4(sp)
 120179c:	dc000017 	ldw	r16,0(sp)
 12017a0:	dec00304 	addi	sp,sp,12
 12017a4:	f800283a 	ret
 12017a8:	80c00017 	ldw	r3,0(r16)
 12017ac:	183ff926 	beq	r3,zero,1201794 <__alt_mem_instruction_tcm+0xff201794>
 12017b0:	88c00015 	stw	r3,0(r17)
 12017b4:	003ff706 	br	1201794 <__alt_mem_instruction_tcm+0xff201794>

012017b8 <sscanf>:
 12017b8:	deffe204 	addi	sp,sp,-120
 12017bc:	dfc01b15 	stw	ra,108(sp)
 12017c0:	dc001a15 	stw	r16,104(sp)
 12017c4:	d9801c15 	stw	r6,112(sp)
 12017c8:	d9c01d15 	stw	r7,116(sp)
 12017cc:	00c08104 	movi	r3,516
 12017d0:	2821883a 	mov	r16,r5
 12017d4:	d8c0030d 	sth	r3,12(sp)
 12017d8:	d9000015 	stw	r4,0(sp)
 12017dc:	d9000415 	stw	r4,16(sp)
 12017e0:	12019e80 	call	12019e8 <strlen>
 12017e4:	00c048b4 	movhi	r3,290
 12017e8:	18c84104 	addi	r3,r3,8452
 12017ec:	d8800115 	stw	r2,4(sp)
 12017f0:	d8800515 	stw	r2,20(sp)
 12017f4:	19000017 	ldw	r4,0(r3)
 12017f8:	00804834 	movhi	r2,288
 12017fc:	10864004 	addi	r2,r2,6400
 1201800:	d8800815 	stw	r2,32(sp)
 1201804:	d80b883a 	mov	r5,sp
 1201808:	800d883a 	mov	r6,r16
 120180c:	d9c01c04 	addi	r7,sp,112
 1201810:	00bfffc4 	movi	r2,-1
 1201814:	d8000c15 	stw	zero,48(sp)
 1201818:	d8001115 	stw	zero,68(sp)
 120181c:	d880038d 	sth	r2,14(sp)
 1201820:	1201a800 	call	1201a80 <__ssvfscanf_r>
 1201824:	dfc01b17 	ldw	ra,108(sp)
 1201828:	dc001a17 	ldw	r16,104(sp)
 120182c:	dec01e04 	addi	sp,sp,120
 1201830:	f800283a 	ret

01201834 <_sscanf_r>:
 1201834:	deffe204 	addi	sp,sp,-120
 1201838:	dc001b15 	stw	r16,108(sp)
 120183c:	2021883a 	mov	r16,r4
 1201840:	dfc01c15 	stw	ra,112(sp)
 1201844:	d9c01d15 	stw	r7,116(sp)
 1201848:	00808104 	movi	r2,516
 120184c:	2809883a 	mov	r4,r5
 1201850:	d9400015 	stw	r5,0(sp)
 1201854:	d9400415 	stw	r5,16(sp)
 1201858:	d9801a15 	stw	r6,104(sp)
 120185c:	d880030d 	sth	r2,12(sp)
 1201860:	12019e80 	call	12019e8 <strlen>
 1201864:	d8800115 	stw	r2,4(sp)
 1201868:	d8800515 	stw	r2,20(sp)
 120186c:	d9801a17 	ldw	r6,104(sp)
 1201870:	00804834 	movhi	r2,288
 1201874:	10864004 	addi	r2,r2,6400
 1201878:	d8800815 	stw	r2,32(sp)
 120187c:	8009883a 	mov	r4,r16
 1201880:	d80b883a 	mov	r5,sp
 1201884:	d9c01d04 	addi	r7,sp,116
 1201888:	00bfffc4 	movi	r2,-1
 120188c:	d8000c15 	stw	zero,48(sp)
 1201890:	d8001115 	stw	zero,68(sp)
 1201894:	d880038d 	sth	r2,14(sp)
 1201898:	1201a800 	call	1201a80 <__ssvfscanf_r>
 120189c:	dfc01c17 	ldw	ra,112(sp)
 12018a0:	dc001b17 	ldw	r16,108(sp)
 12018a4:	dec01e04 	addi	sp,sp,120
 12018a8:	f800283a 	ret

012018ac <__sread>:
 12018ac:	defffe04 	addi	sp,sp,-8
 12018b0:	dc000015 	stw	r16,0(sp)
 12018b4:	2821883a 	mov	r16,r5
 12018b8:	2940038f 	ldh	r5,14(r5)
 12018bc:	dfc00115 	stw	ra,4(sp)
 12018c0:	12045780 	call	1204578 <_read_r>
 12018c4:	10000716 	blt	r2,zero,12018e4 <__sread+0x38>
 12018c8:	80c01417 	ldw	r3,80(r16)
 12018cc:	1887883a 	add	r3,r3,r2
 12018d0:	80c01415 	stw	r3,80(r16)
 12018d4:	dfc00117 	ldw	ra,4(sp)
 12018d8:	dc000017 	ldw	r16,0(sp)
 12018dc:	dec00204 	addi	sp,sp,8
 12018e0:	f800283a 	ret
 12018e4:	80c0030b 	ldhu	r3,12(r16)
 12018e8:	18fbffcc 	andi	r3,r3,61439
 12018ec:	80c0030d 	sth	r3,12(r16)
 12018f0:	dfc00117 	ldw	ra,4(sp)
 12018f4:	dc000017 	ldw	r16,0(sp)
 12018f8:	dec00204 	addi	sp,sp,8
 12018fc:	f800283a 	ret

01201900 <__seofread>:
 1201900:	0005883a 	mov	r2,zero
 1201904:	f800283a 	ret

01201908 <__swrite>:
 1201908:	2880030b 	ldhu	r2,12(r5)
 120190c:	defffb04 	addi	sp,sp,-20
 1201910:	dcc00315 	stw	r19,12(sp)
 1201914:	dc800215 	stw	r18,8(sp)
 1201918:	dc400115 	stw	r17,4(sp)
 120191c:	dc000015 	stw	r16,0(sp)
 1201920:	dfc00415 	stw	ra,16(sp)
 1201924:	10c0400c 	andi	r3,r2,256
 1201928:	2821883a 	mov	r16,r5
 120192c:	2027883a 	mov	r19,r4
 1201930:	3025883a 	mov	r18,r6
 1201934:	3823883a 	mov	r17,r7
 1201938:	18000526 	beq	r3,zero,1201950 <__swrite+0x48>
 120193c:	2940038f 	ldh	r5,14(r5)
 1201940:	000d883a 	mov	r6,zero
 1201944:	01c00084 	movi	r7,2
 1201948:	1203fcc0 	call	1203fcc <_lseek_r>
 120194c:	8080030b 	ldhu	r2,12(r16)
 1201950:	8140038f 	ldh	r5,14(r16)
 1201954:	10bbffcc 	andi	r2,r2,61439
 1201958:	9809883a 	mov	r4,r19
 120195c:	900d883a 	mov	r6,r18
 1201960:	880f883a 	mov	r7,r17
 1201964:	8080030d 	sth	r2,12(r16)
 1201968:	dfc00417 	ldw	ra,16(sp)
 120196c:	dcc00317 	ldw	r19,12(sp)
 1201970:	dc800217 	ldw	r18,8(sp)
 1201974:	dc400117 	ldw	r17,4(sp)
 1201978:	dc000017 	ldw	r16,0(sp)
 120197c:	dec00504 	addi	sp,sp,20
 1201980:	12031e81 	jmpi	12031e8 <_write_r>

01201984 <__sseek>:
 1201984:	defffe04 	addi	sp,sp,-8
 1201988:	dc000015 	stw	r16,0(sp)
 120198c:	2821883a 	mov	r16,r5
 1201990:	2940038f 	ldh	r5,14(r5)
 1201994:	dfc00115 	stw	ra,4(sp)
 1201998:	1203fcc0 	call	1203fcc <_lseek_r>
 120199c:	00ffffc4 	movi	r3,-1
 12019a0:	10c00826 	beq	r2,r3,12019c4 <__sseek+0x40>
 12019a4:	80c0030b 	ldhu	r3,12(r16)
 12019a8:	80801415 	stw	r2,80(r16)
 12019ac:	18c40014 	ori	r3,r3,4096
 12019b0:	80c0030d 	sth	r3,12(r16)
 12019b4:	dfc00117 	ldw	ra,4(sp)
 12019b8:	dc000017 	ldw	r16,0(sp)
 12019bc:	dec00204 	addi	sp,sp,8
 12019c0:	f800283a 	ret
 12019c4:	80c0030b 	ldhu	r3,12(r16)
 12019c8:	18fbffcc 	andi	r3,r3,61439
 12019cc:	80c0030d 	sth	r3,12(r16)
 12019d0:	dfc00117 	ldw	ra,4(sp)
 12019d4:	dc000017 	ldw	r16,0(sp)
 12019d8:	dec00204 	addi	sp,sp,8
 12019dc:	f800283a 	ret

012019e0 <__sclose>:
 12019e0:	2940038f 	ldh	r5,14(r5)
 12019e4:	12032441 	jmpi	1203244 <_close_r>

012019e8 <strlen>:
 12019e8:	208000cc 	andi	r2,r4,3
 12019ec:	10002026 	beq	r2,zero,1201a70 <strlen+0x88>
 12019f0:	20800007 	ldb	r2,0(r4)
 12019f4:	10002026 	beq	r2,zero,1201a78 <strlen+0x90>
 12019f8:	2005883a 	mov	r2,r4
 12019fc:	00000206 	br	1201a08 <strlen+0x20>
 1201a00:	10c00007 	ldb	r3,0(r2)
 1201a04:	18001826 	beq	r3,zero,1201a68 <strlen+0x80>
 1201a08:	10800044 	addi	r2,r2,1
 1201a0c:	10c000cc 	andi	r3,r2,3
 1201a10:	183ffb1e 	bne	r3,zero,1201a00 <__alt_mem_instruction_tcm+0xff201a00>
 1201a14:	10c00017 	ldw	r3,0(r2)
 1201a18:	01ffbff4 	movhi	r7,65279
 1201a1c:	39ffbfc4 	addi	r7,r7,-257
 1201a20:	00ca303a 	nor	r5,zero,r3
 1201a24:	01a02074 	movhi	r6,32897
 1201a28:	19c7883a 	add	r3,r3,r7
 1201a2c:	31a02004 	addi	r6,r6,-32640
 1201a30:	1946703a 	and	r3,r3,r5
 1201a34:	1986703a 	and	r3,r3,r6
 1201a38:	1800091e 	bne	r3,zero,1201a60 <strlen+0x78>
 1201a3c:	10800104 	addi	r2,r2,4
 1201a40:	10c00017 	ldw	r3,0(r2)
 1201a44:	19cb883a 	add	r5,r3,r7
 1201a48:	00c6303a 	nor	r3,zero,r3
 1201a4c:	28c6703a 	and	r3,r5,r3
 1201a50:	1986703a 	and	r3,r3,r6
 1201a54:	183ff926 	beq	r3,zero,1201a3c <__alt_mem_instruction_tcm+0xff201a3c>
 1201a58:	00000106 	br	1201a60 <strlen+0x78>
 1201a5c:	10800044 	addi	r2,r2,1
 1201a60:	10c00007 	ldb	r3,0(r2)
 1201a64:	183ffd1e 	bne	r3,zero,1201a5c <__alt_mem_instruction_tcm+0xff201a5c>
 1201a68:	1105c83a 	sub	r2,r2,r4
 1201a6c:	f800283a 	ret
 1201a70:	2005883a 	mov	r2,r4
 1201a74:	003fe706 	br	1201a14 <__alt_mem_instruction_tcm+0xff201a14>
 1201a78:	0005883a 	mov	r2,zero
 1201a7c:	f800283a 	ret

01201a80 <__ssvfscanf_r>:
 1201a80:	deff4b04 	addi	sp,sp,-724
 1201a84:	df00b315 	stw	fp,716(sp)
 1201a88:	dd80b115 	stw	r22,708(sp)
 1201a8c:	dc40ac15 	stw	r17,688(sp)
 1201a90:	2839883a 	mov	fp,r5
 1201a94:	dfc0b415 	stw	ra,720(sp)
 1201a98:	ddc0b215 	stw	r23,712(sp)
 1201a9c:	dd40b015 	stw	r21,704(sp)
 1201aa0:	dd00af15 	stw	r20,700(sp)
 1201aa4:	dcc0ae15 	stw	r19,696(sp)
 1201aa8:	dc80ad15 	stw	r18,692(sp)
 1201aac:	dc00ab15 	stw	r16,684(sp)
 1201ab0:	202d883a 	mov	r22,r4
 1201ab4:	3023883a 	mov	r17,r6
 1201ab8:	d9c09c15 	stw	r7,624(sp)
 1201abc:	12008380 	call	1200838 <__sfp_lock_acquire>
 1201ac0:	e080030b 	ldhu	r2,12(fp)
 1201ac4:	10c8000c 	andi	r3,r2,8192
 1201ac8:	1800061e 	bne	r3,zero,1201ae4 <__ssvfscanf_r+0x64>
 1201acc:	e1001917 	ldw	r4,100(fp)
 1201ad0:	00f7ffc4 	movi	r3,-8193
 1201ad4:	10880014 	ori	r2,r2,8192
 1201ad8:	20c6703a 	and	r3,r4,r3
 1201adc:	e080030d 	sth	r2,12(fp)
 1201ae0:	e0c01915 	stw	r3,100(fp)
 1201ae4:	88800007 	ldb	r2,0(r17)
 1201ae8:	0029883a 	mov	r20,zero
 1201aec:	054048b4 	movhi	r21,290
 1201af0:	d800a015 	stw	zero,640(sp)
 1201af4:	d8009e15 	stw	zero,632(sp)
 1201af8:	d8009f15 	stw	zero,636(sp)
 1201afc:	d8809b15 	stw	r2,620(sp)
 1201b00:	ad484404 	addi	r21,r21,8464
 1201b04:	a027883a 	mov	r19,r20
 1201b08:	e02f883a 	mov	r23,fp
 1201b0c:	8c800044 	addi	r18,r17,1
 1201b10:	10001e26 	beq	r2,zero,1201b8c <__ssvfscanf_r+0x10c>
 1201b14:	a9000017 	ldw	r4,0(r21)
 1201b18:	2087883a 	add	r3,r4,r2
 1201b1c:	18c00043 	ldbu	r3,1(r3)
 1201b20:	18c0020c 	andi	r3,r3,8
 1201b24:	18001c26 	beq	r3,zero,1201b98 <__ssvfscanf_r+0x118>
 1201b28:	b8800117 	ldw	r2,4(r23)
 1201b2c:	00800e0e 	bge	zero,r2,1201b68 <__ssvfscanf_r+0xe8>
 1201b30:	b8c00017 	ldw	r3,0(r23)
 1201b34:	a9000017 	ldw	r4,0(r21)
 1201b38:	18800003 	ldbu	r2,0(r3)
 1201b3c:	2085883a 	add	r2,r4,r2
 1201b40:	10800043 	ldbu	r2,1(r2)
 1201b44:	1080020c 	andi	r2,r2,8
 1201b48:	10000b26 	beq	r2,zero,1201b78 <__ssvfscanf_r+0xf8>
 1201b4c:	b8800117 	ldw	r2,4(r23)
 1201b50:	18c00044 	addi	r3,r3,1
 1201b54:	b8c00015 	stw	r3,0(r23)
 1201b58:	10bfffc4 	addi	r2,r2,-1
 1201b5c:	b8800115 	stw	r2,4(r23)
 1201b60:	9cc00044 	addi	r19,r19,1
 1201b64:	00bff216 	blt	zero,r2,1201b30 <__alt_mem_instruction_tcm+0xff201b30>
 1201b68:	b009883a 	mov	r4,r22
 1201b6c:	b80b883a 	mov	r5,r23
 1201b70:	12071080 	call	1207108 <__ssrefill_r>
 1201b74:	103fee26 	beq	r2,zero,1201b30 <__alt_mem_instruction_tcm+0xff201b30>
 1201b78:	9023883a 	mov	r17,r18
 1201b7c:	88800007 	ldb	r2,0(r17)
 1201b80:	8c800044 	addi	r18,r17,1
 1201b84:	d8809b15 	stw	r2,620(sp)
 1201b88:	103fe21e 	bne	r2,zero,1201b14 <__alt_mem_instruction_tcm+0xff201b14>
 1201b8c:	120083c0 	call	120083c <__sfp_lock_release>
 1201b90:	d8809f17 	ldw	r2,636(sp)
 1201b94:	00021906 	br	12023fc <__ssvfscanf_r+0x97c>
 1201b98:	00c00944 	movi	r3,37
 1201b9c:	10c0881e 	bne	r2,r3,1201dc0 <__ssvfscanf_r+0x340>
 1201ba0:	88c00043 	ldbu	r3,1(r17)
 1201ba4:	0021883a 	mov	r16,zero
 1201ba8:	0023883a 	mov	r17,zero
 1201bac:	01801e04 	movi	r6,120
 1201bb0:	01c01b04 	movi	r7,108
 1201bb4:	18803fcc 	andi	r2,r3,255
 1201bb8:	91400044 	addi	r5,r18,1
 1201bbc:	3081ef36 	bltu	r6,r2,120237c <__ssvfscanf_r+0x8fc>
 1201bc0:	100490ba 	slli	r2,r2,2
 1201bc4:	02004834 	movhi	r8,288
 1201bc8:	4206f604 	addi	r8,r8,7128
 1201bcc:	1205883a 	add	r2,r2,r8
 1201bd0:	10800017 	ldw	r2,0(r2)
 1201bd4:	1000683a 	jmp	r2
 1201bd8:	012023f4 	movhi	r4,32911
 1201bdc:	0120237c 	xorhi	r4,zero,32909
 1201be0:	0120237c 	xorhi	r4,zero,32909
 1201be4:	0120237c 	xorhi	r4,zero,32909
 1201be8:	0120237c 	xorhi	r4,zero,32909
 1201bec:	0120237c 	xorhi	r4,zero,32909
 1201bf0:	0120237c 	xorhi	r4,zero,32909
 1201bf4:	0120237c 	xorhi	r4,zero,32909
 1201bf8:	0120237c 	xorhi	r4,zero,32909
 1201bfc:	0120237c 	xorhi	r4,zero,32909
 1201c00:	0120237c 	xorhi	r4,zero,32909
 1201c04:	0120237c 	xorhi	r4,zero,32909
 1201c08:	0120237c 	xorhi	r4,zero,32909
 1201c0c:	0120237c 	xorhi	r4,zero,32909
 1201c10:	0120237c 	xorhi	r4,zero,32909
 1201c14:	0120237c 	xorhi	r4,zero,32909
 1201c18:	0120237c 	xorhi	r4,zero,32909
 1201c1c:	0120237c 	xorhi	r4,zero,32909
 1201c20:	0120237c 	xorhi	r4,zero,32909
 1201c24:	0120237c 	xorhi	r4,zero,32909
 1201c28:	0120237c 	xorhi	r4,zero,32909
 1201c2c:	0120237c 	xorhi	r4,zero,32909
 1201c30:	0120237c 	xorhi	r4,zero,32909
 1201c34:	0120237c 	xorhi	r4,zero,32909
 1201c38:	0120237c 	xorhi	r4,zero,32909
 1201c3c:	0120237c 	xorhi	r4,zero,32909
 1201c40:	0120237c 	xorhi	r4,zero,32909
 1201c44:	0120237c 	xorhi	r4,zero,32909
 1201c48:	0120237c 	xorhi	r4,zero,32909
 1201c4c:	0120237c 	xorhi	r4,zero,32909
 1201c50:	0120237c 	xorhi	r4,zero,32909
 1201c54:	0120237c 	xorhi	r4,zero,32909
 1201c58:	0120237c 	xorhi	r4,zero,32909
 1201c5c:	0120237c 	xorhi	r4,zero,32909
 1201c60:	0120237c 	xorhi	r4,zero,32909
 1201c64:	0120237c 	xorhi	r4,zero,32909
 1201c68:	0120237c 	xorhi	r4,zero,32909
 1201c6c:	01201dbc 	xorhi	r4,zero,32886
 1201c70:	0120237c 	xorhi	r4,zero,32909
 1201c74:	0120237c 	xorhi	r4,zero,32909
 1201c78:	0120237c 	xorhi	r4,zero,32909
 1201c7c:	0120237c 	xorhi	r4,zero,32909
 1201c80:	01202364 	muli	r4,zero,-32627
 1201c84:	0120237c 	xorhi	r4,zero,32909
 1201c88:	0120237c 	xorhi	r4,zero,32909
 1201c8c:	0120237c 	xorhi	r4,zero,32909
 1201c90:	0120237c 	xorhi	r4,zero,32909
 1201c94:	0120237c 	xorhi	r4,zero,32909
 1201c98:	01202474 	movhi	r4,32913
 1201c9c:	01202474 	movhi	r4,32913
 1201ca0:	01202474 	movhi	r4,32913
 1201ca4:	01202474 	movhi	r4,32913
 1201ca8:	01202474 	movhi	r4,32913
 1201cac:	01202474 	movhi	r4,32913
 1201cb0:	01202474 	movhi	r4,32913
 1201cb4:	01202474 	movhi	r4,32913
 1201cb8:	01202474 	movhi	r4,32913
 1201cbc:	01202474 	movhi	r4,32913
 1201cc0:	0120237c 	xorhi	r4,zero,32909
 1201cc4:	0120237c 	xorhi	r4,zero,32909
 1201cc8:	0120237c 	xorhi	r4,zero,32909
 1201ccc:	0120237c 	xorhi	r4,zero,32909
 1201cd0:	0120237c 	xorhi	r4,zero,32909
 1201cd4:	0120237c 	xorhi	r4,zero,32909
 1201cd8:	0120237c 	xorhi	r4,zero,32909
 1201cdc:	0120237c 	xorhi	r4,zero,32909
 1201ce0:	0120237c 	xorhi	r4,zero,32909
 1201ce4:	0120237c 	xorhi	r4,zero,32909
 1201ce8:	0120244c 	andi	r4,zero,32913
 1201cec:	0120243c 	xorhi	r4,zero,32912
 1201cf0:	0120237c 	xorhi	r4,zero,32909
 1201cf4:	0120243c 	xorhi	r4,zero,32912
 1201cf8:	0120237c 	xorhi	r4,zero,32909
 1201cfc:	0120237c 	xorhi	r4,zero,32909
 1201d00:	0120237c 	xorhi	r4,zero,32909
 1201d04:	0120237c 	xorhi	r4,zero,32909
 1201d08:	0120242c 	andhi	r4,zero,32912
 1201d0c:	0120237c 	xorhi	r4,zero,32909
 1201d10:	0120237c 	xorhi	r4,zero,32909
 1201d14:	012025b8 	rdprs	r4,zero,-32618
 1201d18:	0120237c 	xorhi	r4,zero,32909
 1201d1c:	0120237c 	xorhi	r4,zero,32909
 1201d20:	0120237c 	xorhi	r4,zero,32909
 1201d24:	0120237c 	xorhi	r4,zero,32909
 1201d28:	0120237c 	xorhi	r4,zero,32909
 1201d2c:	0120237c 	xorhi	r4,zero,32909
 1201d30:	0120237c 	xorhi	r4,zero,32909
 1201d34:	0120237c 	xorhi	r4,zero,32909
 1201d38:	012025ac 	andhi	r4,zero,32918
 1201d3c:	0120237c 	xorhi	r4,zero,32909
 1201d40:	0120237c 	xorhi	r4,zero,32909
 1201d44:	01202590 	cmplti	r4,zero,-32618
 1201d48:	0120237c 	xorhi	r4,zero,32909
 1201d4c:	0120237c 	xorhi	r4,zero,32909
 1201d50:	0120237c 	xorhi	r4,zero,32909
 1201d54:	0120237c 	xorhi	r4,zero,32909
 1201d58:	0120237c 	xorhi	r4,zero,32909
 1201d5c:	0120237c 	xorhi	r4,zero,32909
 1201d60:	0120237c 	xorhi	r4,zero,32909
 1201d64:	0120257c 	xorhi	r4,zero,32917
 1201d68:	01202574 	movhi	r4,32917
 1201d6c:	0120243c 	xorhi	r4,zero,32912
 1201d70:	0120243c 	xorhi	r4,zero,32912
 1201d74:	0120243c 	xorhi	r4,zero,32912
 1201d78:	01202564 	muli	r4,zero,-32619
 1201d7c:	01201df8 	rdprs	r4,zero,-32649
 1201d80:	0120237c 	xorhi	r4,zero,32909
 1201d84:	0120237c 	xorhi	r4,zero,32909
 1201d88:	01202544 	movi	r4,-32619
 1201d8c:	0120237c 	xorhi	r4,zero,32909
 1201d90:	01202518 	cmpnei	r4,zero,-32620
 1201d94:	012024f4 	movhi	r4,32915
 1201d98:	012024cc 	andi	r4,zero,32915
 1201d9c:	0120237c 	xorhi	r4,zero,32909
 1201da0:	0120237c 	xorhi	r4,zero,32909
 1201da4:	012024bc 	xorhi	r4,zero,32914
 1201da8:	0120237c 	xorhi	r4,zero,32909
 1201dac:	01202498 	cmpnei	r4,zero,-32622
 1201db0:	0120237c 	xorhi	r4,zero,32909
 1201db4:	0120237c 	xorhi	r4,zero,32909
 1201db8:	012025ac 	andhi	r4,zero,32918
 1201dbc:	2825883a 	mov	r18,r5
 1201dc0:	b8800117 	ldw	r2,4(r23)
 1201dc4:	00844f0e 	bge	zero,r2,1202f04 <__ssvfscanf_r+0x1484>
 1201dc8:	b8800017 	ldw	r2,0(r23)
 1201dcc:	90ffffc3 	ldbu	r3,-1(r18)
 1201dd0:	11000003 	ldbu	r4,0(r2)
 1201dd4:	20ff6d1e 	bne	r4,r3,1201b8c <__alt_mem_instruction_tcm+0xff201b8c>
 1201dd8:	b8c00117 	ldw	r3,4(r23)
 1201ddc:	10800044 	addi	r2,r2,1
 1201de0:	b8800015 	stw	r2,0(r23)
 1201de4:	18bfffc4 	addi	r2,r3,-1
 1201de8:	b8800115 	stw	r2,4(r23)
 1201dec:	9cc00044 	addi	r19,r19,1
 1201df0:	9023883a 	mov	r17,r18
 1201df4:	003f6106 	br	1201b7c <__alt_mem_instruction_tcm+0xff201b7c>
 1201df8:	02c04834 	movhi	r11,288
 1201dfc:	5ad91e04 	addi	r11,r11,25720
 1201e00:	8839883a 	mov	fp,r17
 1201e04:	2825883a 	mov	r18,r5
 1201e08:	dac0a015 	stw	r11,640(sp)
 1201e0c:	d8009e15 	stw	zero,632(sp)
 1201e10:	050000c4 	movi	r20,3
 1201e14:	b8800117 	ldw	r2,4(r23)
 1201e18:	00816a0e 	bge	zero,r2,12023c4 <__ssvfscanf_r+0x944>
 1201e1c:	8080100c 	andi	r2,r16,64
 1201e20:	10007a26 	beq	r2,zero,120200c <__ssvfscanf_r+0x58c>
 1201e24:	00800084 	movi	r2,2
 1201e28:	a0820a26 	beq	r20,r2,1202654 <__ssvfscanf_r+0xbd4>
 1201e2c:	1501e70e 	bge	r2,r20,12025cc <__ssvfscanf_r+0xb4c>
 1201e30:	008000c4 	movi	r2,3
 1201e34:	a0823f26 	beq	r20,r2,1202734 <__ssvfscanf_r+0xcb4>
 1201e38:	00800104 	movi	r2,4
 1201e3c:	a082221e 	bne	r20,r2,12026c8 <__ssvfscanf_r+0xc48>
 1201e40:	88bfffc4 	addi	r2,r17,-1
 1201e44:	01005704 	movi	r4,348
 1201e48:	20830e2e 	bgeu	r4,r2,1202a84 <__ssvfscanf_r+0x1004>
 1201e4c:	8c7fa8c4 	addi	r17,r17,-349
 1201e50:	dc40a315 	stw	r17,652(sp)
 1201e54:	07005744 	movi	fp,349
 1201e58:	8401e014 	ori	r16,r16,1920
 1201e5c:	0023883a 	mov	r17,zero
 1201e60:	d9c00104 	addi	r7,sp,4
 1201e64:	9011883a 	mov	r8,r18
 1201e68:	d800a415 	stw	zero,656(sp)
 1201e6c:	8825883a 	mov	r18,r17
 1201e70:	d800a215 	stw	zero,648(sp)
 1201e74:	8023883a 	mov	r17,r16
 1201e78:	d8009d15 	stw	zero,628(sp)
 1201e7c:	e021883a 	mov	r16,fp
 1201e80:	d800a115 	stw	zero,644(sp)
 1201e84:	0029883a 	mov	r20,zero
 1201e88:	02c01384 	movi	r11,78
 1201e8c:	00fe1fc4 	movi	r3,-1921
 1201e90:	3839883a 	mov	fp,r7
 1201e94:	b9800017 	ldw	r6,0(r23)
 1201e98:	31000003 	ldbu	r4,0(r6)
 1201e9c:	20bff544 	addi	r2,r4,-43
 1201ea0:	10803fcc 	andi	r2,r2,255
 1201ea4:	58807b36 	bltu	r11,r2,1202094 <__ssvfscanf_r+0x614>
 1201ea8:	100490ba 	slli	r2,r2,2
 1201eac:	01404834 	movhi	r5,288
 1201eb0:	2947b004 	addi	r5,r5,7872
 1201eb4:	1145883a 	add	r2,r2,r5
 1201eb8:	10800017 	ldw	r2,0(r2)
 1201ebc:	1000683a 	jmp	r2
 1201ec0:	01202224 	muli	r4,zero,-32632
 1201ec4:	01202094 	movui	r4,32898
 1201ec8:	01202224 	muli	r4,zero,-32632
 1201ecc:	01202208 	cmpgei	r4,zero,-32632
 1201ed0:	01202094 	movui	r4,32898
 1201ed4:	01202330 	cmpltui	r4,zero,32908
 1201ed8:	0120204c 	andi	r4,zero,32897
 1201edc:	0120204c 	andi	r4,zero,32897
 1201ee0:	0120204c 	andi	r4,zero,32897
 1201ee4:	0120204c 	andi	r4,zero,32897
 1201ee8:	0120204c 	andi	r4,zero,32897
 1201eec:	0120204c 	andi	r4,zero,32897
 1201ef0:	0120204c 	andi	r4,zero,32897
 1201ef4:	0120204c 	andi	r4,zero,32897
 1201ef8:	0120204c 	andi	r4,zero,32897
 1201efc:	01202094 	movui	r4,32898
 1201f00:	01202094 	movui	r4,32898
 1201f04:	01202094 	movui	r4,32898
 1201f08:	01202094 	movui	r4,32898
 1201f0c:	01202094 	movui	r4,32898
 1201f10:	01202094 	movui	r4,32898
 1201f14:	01202094 	movui	r4,32898
 1201f18:	01202320 	cmpeqi	r4,zero,-32628
 1201f1c:	01202094 	movui	r4,32898
 1201f20:	01202094 	movui	r4,32898
 1201f24:	01202094 	movui	r4,32898
 1201f28:	012022d8 	cmpnei	r4,zero,-32629
 1201f2c:	012022bc 	xorhi	r4,zero,32906
 1201f30:	01202094 	movui	r4,32898
 1201f34:	01202094 	movui	r4,32898
 1201f38:	01202284 	movi	r4,-32630
 1201f3c:	01202094 	movui	r4,32898
 1201f40:	01202094 	movui	r4,32898
 1201f44:	01202094 	movui	r4,32898
 1201f48:	01202094 	movui	r4,32898
 1201f4c:	01202254 	movui	r4,32905
 1201f50:	01202094 	movui	r4,32898
 1201f54:	01202094 	movui	r4,32898
 1201f58:	01202094 	movui	r4,32898
 1201f5c:	01202094 	movui	r4,32898
 1201f60:	01202094 	movui	r4,32898
 1201f64:	01202238 	rdprs	r4,zero,-32632
 1201f68:	01202094 	movui	r4,32898
 1201f6c:	01202094 	movui	r4,32898
 1201f70:	01202094 	movui	r4,32898
 1201f74:	01202094 	movui	r4,32898
 1201f78:	012021ec 	andhi	r4,zero,32903
 1201f7c:	01202094 	movui	r4,32898
 1201f80:	01202094 	movui	r4,32898
 1201f84:	01202094 	movui	r4,32898
 1201f88:	01202094 	movui	r4,32898
 1201f8c:	01202094 	movui	r4,32898
 1201f90:	01202094 	movui	r4,32898
 1201f94:	01202094 	movui	r4,32898
 1201f98:	01202320 	cmpeqi	r4,zero,-32628
 1201f9c:	01202094 	movui	r4,32898
 1201fa0:	01202094 	movui	r4,32898
 1201fa4:	01202094 	movui	r4,32898
 1201fa8:	012022d8 	cmpnei	r4,zero,-32629
 1201fac:	012022bc 	xorhi	r4,zero,32906
 1201fb0:	01202094 	movui	r4,32898
 1201fb4:	01202094 	movui	r4,32898
 1201fb8:	01202284 	movi	r4,-32630
 1201fbc:	01202094 	movui	r4,32898
 1201fc0:	01202094 	movui	r4,32898
 1201fc4:	01202094 	movui	r4,32898
 1201fc8:	01202094 	movui	r4,32898
 1201fcc:	01202254 	movui	r4,32905
 1201fd0:	01202094 	movui	r4,32898
 1201fd4:	01202094 	movui	r4,32898
 1201fd8:	01202094 	movui	r4,32898
 1201fdc:	01202094 	movui	r4,32898
 1201fe0:	01202094 	movui	r4,32898
 1201fe4:	01202238 	rdprs	r4,zero,-32632
 1201fe8:	01202094 	movui	r4,32898
 1201fec:	01202094 	movui	r4,32898
 1201ff0:	01202094 	movui	r4,32898
 1201ff4:	01202094 	movui	r4,32898
 1201ff8:	012021ec 	andhi	r4,zero,32903
 1201ffc:	b009883a 	mov	r4,r22
 1202000:	b80b883a 	mov	r5,r23
 1202004:	12071080 	call	1207108 <__ssrefill_r>
 1202008:	1000f21e 	bne	r2,zero,12023d4 <__ssvfscanf_r+0x954>
 120200c:	a9400017 	ldw	r5,0(r21)
 1202010:	b9000017 	ldw	r4,0(r23)
 1202014:	00000206 	br	1202020 <__ssvfscanf_r+0x5a0>
 1202018:	21000044 	addi	r4,r4,1
 120201c:	b9000015 	stw	r4,0(r23)
 1202020:	20800003 	ldbu	r2,0(r4)
 1202024:	2885883a 	add	r2,r5,r2
 1202028:	10800043 	ldbu	r2,1(r2)
 120202c:	1080020c 	andi	r2,r2,8
 1202030:	103f7c26 	beq	r2,zero,1201e24 <__alt_mem_instruction_tcm+0xff201e24>
 1202034:	b8800117 	ldw	r2,4(r23)
 1202038:	9cc00044 	addi	r19,r19,1
 120203c:	10bfffc4 	addi	r2,r2,-1
 1202040:	b8800115 	stw	r2,4(r23)
 1202044:	00bff416 	blt	zero,r2,1202018 <__alt_mem_instruction_tcm+0xff202018>
 1202048:	003fec06 	br	1201ffc <__alt_mem_instruction_tcm+0xff201ffc>
 120204c:	90803fcc 	andi	r2,r18,255
 1202050:	1080201c 	xori	r2,r2,128
 1202054:	10bfe004 	addi	r2,r2,-128
 1202058:	a085883a 	add	r2,r20,r2
 120205c:	10000d1e 	bne	r2,zero,1202094 <__ssvfscanf_r+0x614>
 1202060:	00bf9fc4 	movi	r2,-385
 1202064:	88a2703a 	and	r17,r17,r2
 1202068:	e1000005 	stb	r4,0(fp)
 120206c:	e7000044 	addi	fp,fp,1
 1202070:	b8800117 	ldw	r2,4(r23)
 1202074:	843fffc4 	addi	r16,r16,-1
 1202078:	9cc00044 	addi	r19,r19,1
 120207c:	10bfffc4 	addi	r2,r2,-1
 1202080:	b8800115 	stw	r2,4(r23)
 1202084:	00826e0e 	bge	zero,r2,1202a40 <__ssvfscanf_r+0xfc0>
 1202088:	31800044 	addi	r6,r6,1
 120208c:	b9800015 	stw	r6,0(r23)
 1202090:	803f801e 	bne	r16,zero,1201e94 <__alt_mem_instruction_tcm+0xff201e94>
 1202094:	d8c09d17 	ldw	r3,628(sp)
 1202098:	8821883a 	mov	r16,r17
 120209c:	e00f883a 	mov	r7,fp
 12020a0:	9023883a 	mov	r17,r18
 12020a4:	4025883a 	mov	r18,r8
 12020a8:	1802711e 	bne	r3,zero,1202a70 <__ssvfscanf_r+0xff0>
 12020ac:	a33fffc4 	addi	r12,r20,-1
 12020b0:	00800044 	movi	r2,1
 12020b4:	1304262e 	bgeu	r2,r12,1203150 <__ssvfscanf_r+0x16d0>
 12020b8:	88803fcc 	andi	r2,r17,255
 12020bc:	1080201c 	xori	r2,r2,128
 12020c0:	10bfe004 	addi	r2,r2,-128
 12020c4:	10ffffc4 	addi	r3,r2,-1
 12020c8:	01000184 	movi	r4,6
 12020cc:	20c01336 	bltu	r4,r3,120211c <__ssvfscanf_r+0x69c>
 12020d0:	00c00084 	movi	r3,2
 12020d4:	18842a0e 	bge	r3,r2,1203180 <__ssvfscanf_r+0x1700>
 12020d8:	050000c4 	movi	r20,3
 12020dc:	8839883a 	mov	fp,r17
 12020e0:	15000e26 	beq	r2,r20,120211c <__ssvfscanf_r+0x69c>
 12020e4:	3823883a 	mov	r17,r7
 12020e8:	99e7c83a 	sub	r19,r19,r7
 12020ec:	8c7fffc4 	addi	r17,r17,-1
 12020f0:	89400007 	ldb	r5,0(r17)
 12020f4:	b009883a 	mov	r4,r22
 12020f8:	b80d883a 	mov	r6,r23
 12020fc:	12070100 	call	1207010 <_sungetc_r>
 1202100:	e0bfffc4 	addi	r2,fp,-1
 1202104:	10c03fcc 	andi	r3,r2,255
 1202108:	8cd3883a 	add	r9,r17,r19
 120210c:	1039883a 	mov	fp,r2
 1202110:	a0fff636 	bltu	r20,r3,12020ec <__alt_mem_instruction_tcm+0xff2020ec>
 1202114:	4827883a 	mov	r19,r9
 1202118:	880f883a 	mov	r7,r17
 120211c:	8080400c 	andi	r2,r16,256
 1202120:	10001626 	beq	r2,zero,120217c <__ssvfscanf_r+0x6fc>
 1202124:	8081000c 	andi	r2,r16,1024
 1202128:	1004211e 	bne	r2,zero,12031b0 <__ssvfscanf_r+0x1730>
 120212c:	397fffc7 	ldb	r5,-1(r7)
 1202130:	00801944 	movi	r2,101
 1202134:	3c7fffc4 	addi	r17,r7,-1
 1202138:	9d3fffc4 	addi	r20,r19,-1
 120213c:	28800a26 	beq	r5,r2,1202168 <__ssvfscanf_r+0x6e8>
 1202140:	00801144 	movi	r2,69
 1202144:	28800826 	beq	r5,r2,1202168 <__ssvfscanf_r+0x6e8>
 1202148:	b009883a 	mov	r4,r22
 120214c:	b80d883a 	mov	r6,r23
 1202150:	d9c0a815 	stw	r7,672(sp)
 1202154:	12070100 	call	1207010 <_sungetc_r>
 1202158:	d9c0a817 	ldw	r7,672(sp)
 120215c:	9d3fff84 	addi	r20,r19,-2
 1202160:	397fff87 	ldb	r5,-2(r7)
 1202164:	3c7fff84 	addi	r17,r7,-2
 1202168:	b009883a 	mov	r4,r22
 120216c:	b80d883a 	mov	r6,r23
 1202170:	12070100 	call	1207010 <_sungetc_r>
 1202174:	a027883a 	mov	r19,r20
 1202178:	880f883a 	mov	r7,r17
 120217c:	8080040c 	andi	r2,r16,16
 1202180:	103e7d1e 	bne	r2,zero,1201b78 <__alt_mem_instruction_tcm+0xff201b78>
 1202184:	38000005 	stb	zero,0(r7)
 1202188:	80c1800c 	andi	r3,r16,1536
 120218c:	00810004 	movi	r2,1024
 1202190:	18836b26 	beq	r3,r2,1202f40 <__ssvfscanf_r+0x14c0>
 1202194:	d8c0a217 	ldw	r3,648(sp)
 1202198:	1803221e 	bne	r3,zero,1202e24 <__ssvfscanf_r+0x13a4>
 120219c:	b009883a 	mov	r4,r22
 12021a0:	d9400104 	addi	r5,sp,4
 12021a4:	000d883a 	mov	r6,zero
 12021a8:	1204e180 	call	1204e18 <_strtod_r>
 12021ac:	1023883a 	mov	r17,r2
 12021b0:	8080004c 	andi	r2,r16,1
 12021b4:	1002eb1e 	bne	r2,zero,1202d64 <__ssvfscanf_r+0x12e4>
 12021b8:	8280008c 	andi	r10,r16,2
 12021bc:	50038e26 	beq	r10,zero,1202ff8 <__ssvfscanf_r+0x1578>
 12021c0:	dac09c17 	ldw	r11,624(sp)
 12021c4:	58800017 	ldw	r2,0(r11)
 12021c8:	5ac00104 	addi	r11,r11,4
 12021cc:	dac09c15 	stw	r11,624(sp)
 12021d0:	14400015 	stw	r17,0(r2)
 12021d4:	10c00115 	stw	r3,4(r2)
 12021d8:	dac09f17 	ldw	r11,636(sp)
 12021dc:	9023883a 	mov	r17,r18
 12021e0:	5ac00044 	addi	r11,r11,1
 12021e4:	dac09f15 	stw	r11,636(sp)
 12021e8:	003e6406 	br	1201b7c <__alt_mem_instruction_tcm+0xff201b7c>
 12021ec:	90803fcc 	andi	r2,r18,255
 12021f0:	1080201c 	xori	r2,r2,128
 12021f4:	10bfe004 	addi	r2,r2,-128
 12021f8:	014001c4 	movi	r5,7
 12021fc:	117fa51e 	bne	r2,r5,1202094 <__alt_mem_instruction_tcm+0xff202094>
 1202200:	04800204 	movi	r18,8
 1202204:	003f9806 	br	1202068 <__alt_mem_instruction_tcm+0xff202068>
 1202208:	8880800c 	andi	r2,r17,512
 120220c:	103fa126 	beq	r2,zero,1202094 <__alt_mem_instruction_tcm+0xff202094>
 1202210:	d9409d17 	ldw	r5,628(sp)
 1202214:	00bf5fc4 	movi	r2,-641
 1202218:	88a2703a 	and	r17,r17,r2
 120221c:	d940a115 	stw	r5,644(sp)
 1202220:	003f9106 	br	1202068 <__alt_mem_instruction_tcm+0xff202068>
 1202224:	8880200c 	andi	r2,r17,128
 1202228:	103f9a26 	beq	r2,zero,1202094 <__alt_mem_instruction_tcm+0xff202094>
 120222c:	00bfdfc4 	movi	r2,-129
 1202230:	88a2703a 	and	r17,r17,r2
 1202234:	003f8c06 	br	1202068 <__alt_mem_instruction_tcm+0xff202068>
 1202238:	91403fcc 	andi	r5,r18,255
 120223c:	2940201c 	xori	r5,r5,128
 1202240:	297fe004 	addi	r5,r5,-128
 1202244:	00800184 	movi	r2,6
 1202248:	28bf921e 	bne	r5,r2,1202094 <__alt_mem_instruction_tcm+0xff202094>
 120224c:	048001c4 	movi	r18,7
 1202250:	003f8506 	br	1202068 <__alt_mem_instruction_tcm+0xff202068>
 1202254:	a0025c1e 	bne	r20,zero,1202bc8 <__ssvfscanf_r+0x1148>
 1202258:	d9409d17 	ldw	r5,628(sp)
 120225c:	2802d226 	beq	r5,zero,1202da8 <__ssvfscanf_r+0x1328>
 1202260:	90803fcc 	andi	r2,r18,255
 1202264:	1080201c 	xori	r2,r2,128
 1202268:	10bfe004 	addi	r2,r2,-128
 120226c:	01400044 	movi	r5,1
 1202270:	11400226 	beq	r2,r5,120227c <__ssvfscanf_r+0x7fc>
 1202274:	01400104 	movi	r5,4
 1202278:	117f861e 	bne	r2,r5,1202094 <__alt_mem_instruction_tcm+0xff202094>
 120227c:	94800044 	addi	r18,r18,1
 1202280:	003f7906 	br	1202068 <__alt_mem_instruction_tcm+0xff202068>
 1202284:	90803fcc 	andi	r2,r18,255
 1202288:	1080201c 	xori	r2,r2,128
 120228c:	10bfe004 	addi	r2,r2,-128
 1202290:	1002481e 	bne	r2,zero,1202bb4 <__ssvfscanf_r+0x1134>
 1202294:	d8809d17 	ldw	r2,628(sp)
 1202298:	1002bc1e 	bne	r2,zero,1202d8c <__ssvfscanf_r+0x130c>
 120229c:	8941c00c 	andi	r5,r17,1792
 12022a0:	0081c004 	movi	r2,1792
 12022a4:	28838f26 	beq	r5,r2,12030e4 <__ssvfscanf_r+0x1664>
 12022a8:	8821883a 	mov	r16,r17
 12022ac:	e00f883a 	mov	r7,fp
 12022b0:	9023883a 	mov	r17,r18
 12022b4:	4025883a 	mov	r18,r8
 12022b8:	003f7c06 	br	12020ac <__alt_mem_instruction_tcm+0xff2020ac>
 12022bc:	91403fcc 	andi	r5,r18,255
 12022c0:	2940201c 	xori	r5,r5,128
 12022c4:	297fe004 	addi	r5,r5,-128
 12022c8:	00800084 	movi	r2,2
 12022cc:	28bf711e 	bne	r5,r2,1202094 <__alt_mem_instruction_tcm+0xff202094>
 12022d0:	048000c4 	movi	r18,3
 12022d4:	003f6406 	br	1202068 <__alt_mem_instruction_tcm+0xff202068>
 12022d8:	8881400c 	andi	r2,r17,1280
 12022dc:	01410004 	movi	r5,1024
 12022e0:	11400426 	beq	r2,r5,12022f4 <__ssvfscanf_r+0x874>
 12022e4:	8944703a 	and	r2,r17,r5
 12022e8:	103f6a26 	beq	r2,zero,1202094 <__alt_mem_instruction_tcm+0xff202094>
 12022ec:	d8809d17 	ldw	r2,628(sp)
 12022f0:	103fed26 	beq	r2,zero,12022a8 <__alt_mem_instruction_tcm+0xff2022a8>
 12022f4:	8880800c 	andi	r2,r17,512
 12022f8:	1000051e 	bne	r2,zero,1202310 <__ssvfscanf_r+0x890>
 12022fc:	d9409d17 	ldw	r5,628(sp)
 1202300:	d880a117 	ldw	r2,644(sp)
 1202304:	df00a415 	stw	fp,656(sp)
 1202308:	288bc83a 	sub	r5,r5,r2
 120230c:	d940a215 	stw	r5,648(sp)
 1202310:	88e2703a 	and	r17,r17,r3
 1202314:	8c406014 	ori	r17,r17,384
 1202318:	d8009d15 	stw	zero,628(sp)
 120231c:	003f5206 	br	1202068 <__alt_mem_instruction_tcm+0xff202068>
 1202320:	00800044 	movi	r2,1
 1202324:	a0bf5b1e 	bne	r20,r2,1202094 <__alt_mem_instruction_tcm+0xff202094>
 1202328:	05000084 	movi	r20,2
 120232c:	003f4e06 	br	1202068 <__alt_mem_instruction_tcm+0xff202068>
 1202330:	8880400c 	andi	r2,r17,256
 1202334:	103f4526 	beq	r2,zero,120204c <__alt_mem_instruction_tcm+0xff20204c>
 1202338:	00bfdfc4 	movi	r2,-129
 120233c:	88a2703a 	and	r17,r17,r2
 1202340:	d8809d17 	ldw	r2,628(sp)
 1202344:	d900a317 	ldw	r4,652(sp)
 1202348:	10800044 	addi	r2,r2,1
 120234c:	d8809d15 	stw	r2,628(sp)
 1202350:	203f4726 	beq	r4,zero,1202070 <__alt_mem_instruction_tcm+0xff202070>
 1202354:	213fffc4 	addi	r4,r4,-1
 1202358:	d900a315 	stw	r4,652(sp)
 120235c:	84000044 	addi	r16,r16,1
 1202360:	003f4306 	br	1202070 <__alt_mem_instruction_tcm+0xff202070>
 1202364:	90c00043 	ldbu	r3,1(r18)
 1202368:	2825883a 	mov	r18,r5
 120236c:	84000414 	ori	r16,r16,16
 1202370:	18803fcc 	andi	r2,r3,255
 1202374:	91400044 	addi	r5,r18,1
 1202378:	30be112e 	bgeu	r6,r2,1201bc0 <__alt_mem_instruction_tcm+0xff201bc0>
 120237c:	18c03fcc 	andi	r3,r3,255
 1202380:	18c0201c 	xori	r3,r3,128
 1202384:	18ffe004 	addi	r3,r3,-128
 1202388:	20c9883a 	add	r4,r4,r3
 120238c:	20800043 	ldbu	r2,1(r4)
 1202390:	00c00044 	movi	r3,1
 1202394:	2825883a 	mov	r18,r5
 1202398:	108000cc 	andi	r2,r2,3
 120239c:	10c2ee26 	beq	r2,r3,1202f58 <__ssvfscanf_r+0x14d8>
 12023a0:	00804834 	movhi	r2,288
 12023a4:	10991e04 	addi	r2,r2,25720
 12023a8:	d880a015 	stw	r2,640(sp)
 12023ac:	b8800117 	ldw	r2,4(r23)
 12023b0:	02000284 	movi	r8,10
 12023b4:	da009e15 	stw	r8,632(sp)
 12023b8:	8839883a 	mov	fp,r17
 12023bc:	050000c4 	movi	r20,3
 12023c0:	00be9616 	blt	zero,r2,1201e1c <__alt_mem_instruction_tcm+0xff201e1c>
 12023c4:	b009883a 	mov	r4,r22
 12023c8:	b80b883a 	mov	r5,r23
 12023cc:	12071080 	call	1207108 <__ssrefill_r>
 12023d0:	103e9226 	beq	r2,zero,1201e1c <__alt_mem_instruction_tcm+0xff201e1c>
 12023d4:	120083c0 	call	120083c <__sfp_lock_release>
 12023d8:	da009f17 	ldw	r8,636(sp)
 12023dc:	40007926 	beq	r8,zero,12025c4 <__ssvfscanf_r+0xb44>
 12023e0:	b880030b 	ldhu	r2,12(r23)
 12023e4:	1080100c 	andi	r2,r2,64
 12023e8:	1000761e 	bne	r2,zero,12025c4 <__ssvfscanf_r+0xb44>
 12023ec:	4005883a 	mov	r2,r8
 12023f0:	00000206 	br	12023fc <__ssvfscanf_r+0x97c>
 12023f4:	120083c0 	call	120083c <__sfp_lock_release>
 12023f8:	00bfffc4 	movi	r2,-1
 12023fc:	dfc0b417 	ldw	ra,720(sp)
 1202400:	df00b317 	ldw	fp,716(sp)
 1202404:	ddc0b217 	ldw	r23,712(sp)
 1202408:	dd80b117 	ldw	r22,708(sp)
 120240c:	dd40b017 	ldw	r21,704(sp)
 1202410:	dd00af17 	ldw	r20,700(sp)
 1202414:	dcc0ae17 	ldw	r19,696(sp)
 1202418:	dc80ad17 	ldw	r18,692(sp)
 120241c:	dc40ac17 	ldw	r17,688(sp)
 1202420:	dc00ab17 	ldw	r16,684(sp)
 1202424:	dec0b504 	addi	sp,sp,724
 1202428:	f800283a 	ret
 120242c:	90c00043 	ldbu	r3,1(r18)
 1202430:	84000094 	ori	r16,r16,2
 1202434:	2825883a 	mov	r18,r5
 1202438:	003dde06 	br	1201bb4 <__alt_mem_instruction_tcm+0xff201bb4>
 120243c:	2825883a 	mov	r18,r5
 1202440:	8839883a 	mov	fp,r17
 1202444:	05000104 	movi	r20,4
 1202448:	003e7206 	br	1201e14 <__alt_mem_instruction_tcm+0xff201e14>
 120244c:	2825883a 	mov	r18,r5
 1202450:	84000054 	ori	r16,r16,1
 1202454:	02c04834 	movhi	r11,288
 1202458:	5ad91e04 	addi	r11,r11,25720
 120245c:	02000284 	movi	r8,10
 1202460:	8839883a 	mov	fp,r17
 1202464:	dac0a015 	stw	r11,640(sp)
 1202468:	da009e15 	stw	r8,632(sp)
 120246c:	050000c4 	movi	r20,3
 1202470:	003e6806 	br	1201e14 <__alt_mem_instruction_tcm+0xff201e14>
 1202474:	18803fcc 	andi	r2,r3,255
 1202478:	8c4002a4 	muli	r17,r17,10
 120247c:	1080201c 	xori	r2,r2,128
 1202480:	10bfe004 	addi	r2,r2,-128
 1202484:	88a3883a 	add	r17,r17,r2
 1202488:	90c00043 	ldbu	r3,1(r18)
 120248c:	8c7ff404 	addi	r17,r17,-48
 1202490:	2825883a 	mov	r18,r5
 1202494:	003dc706 	br	1201bb4 <__alt_mem_instruction_tcm+0xff201bb4>
 1202498:	02c04834 	movhi	r11,288
 120249c:	5ada8404 	addi	r11,r11,27152
 12024a0:	02000284 	movi	r8,10
 12024a4:	2825883a 	mov	r18,r5
 12024a8:	8839883a 	mov	fp,r17
 12024ac:	dac0a015 	stw	r11,640(sp)
 12024b0:	da009e15 	stw	r8,632(sp)
 12024b4:	050000c4 	movi	r20,3
 12024b8:	003e5606 	br	1201e14 <__alt_mem_instruction_tcm+0xff201e14>
 12024bc:	2825883a 	mov	r18,r5
 12024c0:	8839883a 	mov	fp,r17
 12024c4:	05000084 	movi	r20,2
 12024c8:	003e5206 	br	1201e14 <__alt_mem_instruction_tcm+0xff201e14>
 12024cc:	2825883a 	mov	r18,r5
 12024d0:	84008814 	ori	r16,r16,544
 12024d4:	02c04834 	movhi	r11,288
 12024d8:	5ada8404 	addi	r11,r11,27152
 12024dc:	02000404 	movi	r8,16
 12024e0:	8839883a 	mov	fp,r17
 12024e4:	dac0a015 	stw	r11,640(sp)
 12024e8:	da009e15 	stw	r8,632(sp)
 12024ec:	050000c4 	movi	r20,3
 12024f0:	003e4806 	br	1201e14 <__alt_mem_instruction_tcm+0xff201e14>
 12024f4:	2825883a 	mov	r18,r5
 12024f8:	02c04834 	movhi	r11,288
 12024fc:	5ada8404 	addi	r11,r11,27152
 1202500:	02000204 	movi	r8,8
 1202504:	8839883a 	mov	fp,r17
 1202508:	dac0a015 	stw	r11,640(sp)
 120250c:	da009e15 	stw	r8,632(sp)
 1202510:	050000c4 	movi	r20,3
 1202514:	003e3f06 	br	1201e14 <__alt_mem_instruction_tcm+0xff201e14>
 1202518:	8080040c 	andi	r2,r16,16
 120251c:	2825883a 	mov	r18,r5
 1202520:	103d951e 	bne	r2,zero,1201b78 <__alt_mem_instruction_tcm+0xff201b78>
 1202524:	8080010c 	andi	r2,r16,4
 1202528:	10028d26 	beq	r2,zero,1202f60 <__ssvfscanf_r+0x14e0>
 120252c:	dac09c17 	ldw	r11,624(sp)
 1202530:	58800017 	ldw	r2,0(r11)
 1202534:	5ac00104 	addi	r11,r11,4
 1202538:	dac09c15 	stw	r11,624(sp)
 120253c:	14c0000d 	sth	r19,0(r2)
 1202540:	003d8d06 	br	1201b78 <__alt_mem_instruction_tcm+0xff201b78>
 1202544:	90c00043 	ldbu	r3,1(r18)
 1202548:	18803fcc 	andi	r2,r3,255
 120254c:	1080201c 	xori	r2,r2,128
 1202550:	10bfe004 	addi	r2,r2,-128
 1202554:	11c27626 	beq	r2,r7,1202f30 <__ssvfscanf_r+0x14b0>
 1202558:	84000054 	ori	r16,r16,1
 120255c:	2825883a 	mov	r18,r5
 1202560:	003d9406 	br	1201bb4 <__alt_mem_instruction_tcm+0xff201bb4>
 1202564:	90c00043 	ldbu	r3,1(r18)
 1202568:	84000114 	ori	r16,r16,4
 120256c:	2825883a 	mov	r18,r5
 1202570:	003d9006 	br	1201bb4 <__alt_mem_instruction_tcm+0xff201bb4>
 1202574:	2825883a 	mov	r18,r5
 1202578:	003fb606 	br	1202454 <__alt_mem_instruction_tcm+0xff202454>
 120257c:	2825883a 	mov	r18,r5
 1202580:	84001014 	ori	r16,r16,64
 1202584:	8839883a 	mov	fp,r17
 1202588:	0029883a 	mov	r20,zero
 120258c:	003e2106 	br	1201e14 <__alt_mem_instruction_tcm+0xff201e14>
 1202590:	d9005884 	addi	r4,sp,354
 1202594:	1204be80 	call	1204be8 <__sccl>
 1202598:	1025883a 	mov	r18,r2
 120259c:	84001014 	ori	r16,r16,64
 12025a0:	8839883a 	mov	fp,r17
 12025a4:	05000044 	movi	r20,1
 12025a8:	003e1a06 	br	1201e14 <__alt_mem_instruction_tcm+0xff201e14>
 12025ac:	2825883a 	mov	r18,r5
 12025b0:	84008014 	ori	r16,r16,512
 12025b4:	003fc706 	br	12024d4 <__alt_mem_instruction_tcm+0xff2024d4>
 12025b8:	2825883a 	mov	r18,r5
 12025bc:	84000054 	ori	r16,r16,1
 12025c0:	003fcd06 	br	12024f8 <__alt_mem_instruction_tcm+0xff2024f8>
 12025c4:	00bfffc4 	movi	r2,-1
 12025c8:	003f8c06 	br	12023fc <__alt_mem_instruction_tcm+0xff2023fc>
 12025cc:	00800044 	movi	r2,1
 12025d0:	a0803d1e 	bne	r20,r2,12026c8 <__ssvfscanf_r+0xc48>
 12025d4:	8800011e 	bne	r17,zero,12025dc <__ssvfscanf_r+0xb5c>
 12025d8:	073fffc4 	movi	fp,-1
 12025dc:	8400040c 	andi	r16,r16,16
 12025e0:	80012a26 	beq	r16,zero,1202a8c <__ssvfscanf_r+0x100c>
 12025e4:	b9000017 	ldw	r4,0(r23)
 12025e8:	0021883a 	mov	r16,zero
 12025ec:	dc405884 	addi	r17,sp,354
 12025f0:	20800003 	ldbu	r2,0(r4)
 12025f4:	8885883a 	add	r2,r17,r2
 12025f8:	10800007 	ldb	r2,0(r2)
 12025fc:	10001126 	beq	r2,zero,1202644 <__ssvfscanf_r+0xbc4>
 1202600:	b8800117 	ldw	r2,4(r23)
 1202604:	21000044 	addi	r4,r4,1
 1202608:	84000044 	addi	r16,r16,1
 120260c:	10bfffc4 	addi	r2,r2,-1
 1202610:	b8800115 	stw	r2,4(r23)
 1202614:	b9000015 	stw	r4,0(r23)
 1202618:	e4000b26 	beq	fp,r16,1202648 <__ssvfscanf_r+0xbc8>
 120261c:	00bff416 	blt	zero,r2,12025f0 <__alt_mem_instruction_tcm+0xff2025f0>
 1202620:	b009883a 	mov	r4,r22
 1202624:	b80b883a 	mov	r5,r23
 1202628:	12071080 	call	1207108 <__ssrefill_r>
 120262c:	1000061e 	bne	r2,zero,1202648 <__ssvfscanf_r+0xbc8>
 1202630:	b9000017 	ldw	r4,0(r23)
 1202634:	20800003 	ldbu	r2,0(r4)
 1202638:	8885883a 	add	r2,r17,r2
 120263c:	10800007 	ldb	r2,0(r2)
 1202640:	103fef1e 	bne	r2,zero,1202600 <__alt_mem_instruction_tcm+0xff202600>
 1202644:	803d5126 	beq	r16,zero,1201b8c <__alt_mem_instruction_tcm+0xff201b8c>
 1202648:	9c27883a 	add	r19,r19,r16
 120264c:	9023883a 	mov	r17,r18
 1202650:	003d4a06 	br	1201b7c <__alt_mem_instruction_tcm+0xff201b7c>
 1202654:	8800011e 	bne	r17,zero,120265c <__ssvfscanf_r+0xbdc>
 1202658:	073fffc4 	movi	fp,-1
 120265c:	8080004c 	andi	r2,r16,1
 1202660:	10016f1e 	bne	r2,zero,1202c20 <__ssvfscanf_r+0x11a0>
 1202664:	8400040c 	andi	r16,r16,16
 1202668:	80012a26 	beq	r16,zero,1202b14 <__ssvfscanf_r+0x1094>
 120266c:	a9400017 	ldw	r5,0(r21)
 1202670:	b9000017 	ldw	r4,0(r23)
 1202674:	0021883a 	mov	r16,zero
 1202678:	20800003 	ldbu	r2,0(r4)
 120267c:	2885883a 	add	r2,r5,r2
 1202680:	10800043 	ldbu	r2,1(r2)
 1202684:	1080020c 	andi	r2,r2,8
 1202688:	103fef1e 	bne	r2,zero,1202648 <__alt_mem_instruction_tcm+0xff202648>
 120268c:	b8800117 	ldw	r2,4(r23)
 1202690:	21000044 	addi	r4,r4,1
 1202694:	84000044 	addi	r16,r16,1
 1202698:	10bfffc4 	addi	r2,r2,-1
 120269c:	b8800115 	stw	r2,4(r23)
 12026a0:	b9000015 	stw	r4,0(r23)
 12026a4:	e43fe826 	beq	fp,r16,1202648 <__alt_mem_instruction_tcm+0xff202648>
 12026a8:	00bff316 	blt	zero,r2,1202678 <__alt_mem_instruction_tcm+0xff202678>
 12026ac:	b009883a 	mov	r4,r22
 12026b0:	b80b883a 	mov	r5,r23
 12026b4:	12071080 	call	1207108 <__ssrefill_r>
 12026b8:	103fe31e 	bne	r2,zero,1202648 <__alt_mem_instruction_tcm+0xff202648>
 12026bc:	a9400017 	ldw	r5,0(r21)
 12026c0:	b9000017 	ldw	r4,0(r23)
 12026c4:	003fec06 	br	1202678 <__alt_mem_instruction_tcm+0xff202678>
 12026c8:	8800011e 	bne	r17,zero,12026d0 <__ssvfscanf_r+0xc50>
 12026cc:	07000044 	movi	fp,1
 12026d0:	8080004c 	andi	r2,r16,1
 12026d4:	1001701e 	bne	r2,zero,1202c98 <__ssvfscanf_r+0x1218>
 12026d8:	8400040c 	andi	r16,r16,16
 12026dc:	8001f626 	beq	r16,zero,1202eb8 <__ssvfscanf_r+0x1438>
 12026e0:	0021883a 	mov	r16,zero
 12026e4:	00000906 	br	120270c <__ssvfscanf_r+0xc8c>
 12026e8:	b8c00017 	ldw	r3,0(r23)
 12026ec:	b009883a 	mov	r4,r22
 12026f0:	b80b883a 	mov	r5,r23
 12026f4:	1887883a 	add	r3,r3,r2
 12026f8:	b8c00015 	stw	r3,0(r23)
 12026fc:	80a1883a 	add	r16,r16,r2
 1202700:	e0b9c83a 	sub	fp,fp,r2
 1202704:	12071080 	call	1207108 <__ssrefill_r>
 1202708:	1001e81e 	bne	r2,zero,1202eac <__ssvfscanf_r+0x142c>
 120270c:	b8800117 	ldw	r2,4(r23)
 1202710:	173ff516 	blt	r2,fp,12026e8 <__alt_mem_instruction_tcm+0xff2026e8>
 1202714:	b9000017 	ldw	r4,0(r23)
 1202718:	1705c83a 	sub	r2,r2,fp
 120271c:	e421883a 	add	r16,fp,r16
 1202720:	2707883a 	add	r3,r4,fp
 1202724:	b8800115 	stw	r2,4(r23)
 1202728:	b8c00015 	stw	r3,0(r23)
 120272c:	9c27883a 	add	r19,r19,r16
 1202730:	003fc606 	br	120264c <__alt_mem_instruction_tcm+0xff20264c>
 1202734:	88bfffc4 	addi	r2,r17,-1
 1202738:	01005704 	movi	r4,348
 120273c:	2080cf2e 	bgeu	r4,r2,1202a7c <__ssvfscanf_r+0xffc>
 1202740:	89ffa8c4 	addi	r7,r17,-349
 1202744:	07005744 	movi	fp,349
 1202748:	84436014 	ori	r17,r16,3456
 120274c:	0021883a 	mov	r16,zero
 1202750:	9013883a 	mov	r9,r18
 1202754:	8025883a 	mov	r18,r16
 1202758:	dc009e17 	ldw	r16,632(sp)
 120275c:	dd000104 	addi	r20,sp,4
 1202760:	02001344 	movi	r8,77
 1202764:	02808004 	movi	r10,512
 1202768:	01bf7fc4 	movi	r6,-513
 120276c:	00ffdfc4 	movi	r3,-129
 1202770:	b9000017 	ldw	r4,0(r23)
 1202774:	21400003 	ldbu	r5,0(r4)
 1202778:	28bff544 	addi	r2,r5,-43
 120277c:	10803fcc 	andi	r2,r2,255
 1202780:	40806336 	bltu	r8,r2,1202910 <__ssvfscanf_r+0xe90>
 1202784:	100490ba 	slli	r2,r2,2
 1202788:	02c04834 	movhi	r11,288
 120278c:	5ac9e704 	addi	r11,r11,10140
 1202790:	12c5883a 	add	r2,r2,r11
 1202794:	10800017 	ldw	r2,0(r2)
 1202798:	1000683a 	jmp	r2
 120279c:	01202a30 	cmpltui	r4,zero,32936
 12027a0:	01202910 	cmplti	r4,zero,-32604
 12027a4:	01202a30 	cmpltui	r4,zero,32936
 12027a8:	01202910 	cmplti	r4,zero,-32604
 12027ac:	01202910 	cmplti	r4,zero,-32604
 12027b0:	012029a8 	cmpgeui	r4,zero,32934
 12027b4:	01202988 	cmpgei	r4,zero,-32602
 12027b8:	01202988 	cmpgei	r4,zero,-32602
 12027bc:	01202988 	cmpgei	r4,zero,-32602
 12027c0:	01202988 	cmpgei	r4,zero,-32602
 12027c4:	01202988 	cmpgei	r4,zero,-32602
 12027c8:	01202988 	cmpgei	r4,zero,-32602
 12027cc:	01202988 	cmpgei	r4,zero,-32602
 12027d0:	01202968 	cmpgeui	r4,zero,32933
 12027d4:	01202968 	cmpgeui	r4,zero,32933
 12027d8:	01202910 	cmplti	r4,zero,-32604
 12027dc:	01202910 	cmplti	r4,zero,-32604
 12027e0:	01202910 	cmplti	r4,zero,-32604
 12027e4:	01202910 	cmplti	r4,zero,-32604
 12027e8:	01202910 	cmplti	r4,zero,-32604
 12027ec:	01202910 	cmplti	r4,zero,-32604
 12027f0:	01202910 	cmplti	r4,zero,-32604
 12027f4:	01202954 	movui	r4,32933
 12027f8:	01202954 	movui	r4,32933
 12027fc:	01202954 	movui	r4,32933
 1202800:	01202954 	movui	r4,32933
 1202804:	01202954 	movui	r4,32933
 1202808:	01202954 	movui	r4,32933
 120280c:	01202910 	cmplti	r4,zero,-32604
 1202810:	01202910 	cmplti	r4,zero,-32604
 1202814:	01202910 	cmplti	r4,zero,-32604
 1202818:	01202910 	cmplti	r4,zero,-32604
 120281c:	01202910 	cmplti	r4,zero,-32604
 1202820:	01202910 	cmplti	r4,zero,-32604
 1202824:	01202910 	cmplti	r4,zero,-32604
 1202828:	01202910 	cmplti	r4,zero,-32604
 120282c:	01202910 	cmplti	r4,zero,-32604
 1202830:	01202910 	cmplti	r4,zero,-32604
 1202834:	01202910 	cmplti	r4,zero,-32604
 1202838:	01202910 	cmplti	r4,zero,-32604
 120283c:	01202910 	cmplti	r4,zero,-32604
 1202840:	01202910 	cmplti	r4,zero,-32604
 1202844:	01202910 	cmplti	r4,zero,-32604
 1202848:	01202910 	cmplti	r4,zero,-32604
 120284c:	01202910 	cmplti	r4,zero,-32604
 1202850:	012028d4 	movui	r4,32931
 1202854:	01202910 	cmplti	r4,zero,-32604
 1202858:	01202910 	cmplti	r4,zero,-32604
 120285c:	01202910 	cmplti	r4,zero,-32604
 1202860:	01202910 	cmplti	r4,zero,-32604
 1202864:	01202910 	cmplti	r4,zero,-32604
 1202868:	01202910 	cmplti	r4,zero,-32604
 120286c:	01202910 	cmplti	r4,zero,-32604
 1202870:	01202910 	cmplti	r4,zero,-32604
 1202874:	01202954 	movui	r4,32933
 1202878:	01202954 	movui	r4,32933
 120287c:	01202954 	movui	r4,32933
 1202880:	01202954 	movui	r4,32933
 1202884:	01202954 	movui	r4,32933
 1202888:	01202954 	movui	r4,32933
 120288c:	01202910 	cmplti	r4,zero,-32604
 1202890:	01202910 	cmplti	r4,zero,-32604
 1202894:	01202910 	cmplti	r4,zero,-32604
 1202898:	01202910 	cmplti	r4,zero,-32604
 120289c:	01202910 	cmplti	r4,zero,-32604
 12028a0:	01202910 	cmplti	r4,zero,-32604
 12028a4:	01202910 	cmplti	r4,zero,-32604
 12028a8:	01202910 	cmplti	r4,zero,-32604
 12028ac:	01202910 	cmplti	r4,zero,-32604
 12028b0:	01202910 	cmplti	r4,zero,-32604
 12028b4:	01202910 	cmplti	r4,zero,-32604
 12028b8:	01202910 	cmplti	r4,zero,-32604
 12028bc:	01202910 	cmplti	r4,zero,-32604
 12028c0:	01202910 	cmplti	r4,zero,-32604
 12028c4:	01202910 	cmplti	r4,zero,-32604
 12028c8:	01202910 	cmplti	r4,zero,-32604
 12028cc:	01202910 	cmplti	r4,zero,-32604
 12028d0:	012028d4 	movui	r4,32931
 12028d4:	8881800c 	andi	r2,r17,1536
 12028d8:	12800d1e 	bne	r2,r10,1202910 <__ssvfscanf_r+0xe90>
 12028dc:	89a2703a 	and	r17,r17,r6
 12028e0:	8c414014 	ori	r17,r17,1280
 12028e4:	04000404 	movi	r16,16
 12028e8:	b8800117 	ldw	r2,4(r23)
 12028ec:	a1400005 	stb	r5,0(r20)
 12028f0:	a5000044 	addi	r20,r20,1
 12028f4:	10bfffc4 	addi	r2,r2,-1
 12028f8:	b8800115 	stw	r2,4(r23)
 12028fc:	00803b0e 	bge	zero,r2,12029ec <__ssvfscanf_r+0xf6c>
 1202900:	21000044 	addi	r4,r4,1
 1202904:	b9000015 	stw	r4,0(r23)
 1202908:	e73fffc4 	addi	fp,fp,-1
 120290c:	e03f981e 	bne	fp,zero,1202770 <__alt_mem_instruction_tcm+0xff202770>
 1202910:	dc009e15 	stw	r16,632(sp)
 1202914:	8880400c 	andi	r2,r17,256
 1202918:	9021883a 	mov	r16,r18
 120291c:	4825883a 	mov	r18,r9
 1202920:	10000426 	beq	r2,zero,1202934 <__ssvfscanf_r+0xeb4>
 1202924:	d8800104 	addi	r2,sp,4
 1202928:	15017b36 	bltu	r2,r20,1202f18 <__ssvfscanf_r+0x1498>
 120292c:	d8c00104 	addi	r3,sp,4
 1202930:	1d3c9626 	beq	r3,r20,1201b8c <__alt_mem_instruction_tcm+0xff201b8c>
 1202934:	8880040c 	andi	r2,r17,16
 1202938:	1000a726 	beq	r2,zero,1202bd8 <__ssvfscanf_r+0x1158>
 120293c:	dac00104 	addi	r11,sp,4
 1202940:	a2e9c83a 	sub	r20,r20,r11
 1202944:	a429883a 	add	r20,r20,r16
 1202948:	9d27883a 	add	r19,r19,r20
 120294c:	9023883a 	mov	r17,r18
 1202950:	003c8a06 	br	1201b7c <__alt_mem_instruction_tcm+0xff201b7c>
 1202954:	00800284 	movi	r2,10
 1202958:	143fed0e 	bge	r2,r16,1202910 <__alt_mem_instruction_tcm+0xff202910>
 120295c:	00bd1fc4 	movi	r2,-2945
 1202960:	88a2703a 	and	r17,r17,r2
 1202964:	003fe006 	br	12028e8 <__alt_mem_instruction_tcm+0xff2028e8>
 1202968:	02c048b4 	movhi	r11,290
 120296c:	8421883a 	add	r16,r16,r16
 1202970:	5aff7f84 	addi	r11,r11,-514
 1202974:	5c05883a 	add	r2,r11,r16
 1202978:	1400000f 	ldh	r16,0(r2)
 120297c:	00800204 	movi	r2,8
 1202980:	143ff616 	blt	r2,r16,120295c <__alt_mem_instruction_tcm+0xff20295c>
 1202984:	003fe206 	br	1202910 <__alt_mem_instruction_tcm+0xff202910>
 1202988:	02c048b4 	movhi	r11,290
 120298c:	8421883a 	add	r16,r16,r16
 1202990:	5aff7f84 	addi	r11,r11,-514
 1202994:	5c05883a 	add	r2,r11,r16
 1202998:	1400000f 	ldh	r16,0(r2)
 120299c:	00bd1fc4 	movi	r2,-2945
 12029a0:	88a2703a 	and	r17,r17,r2
 12029a4:	003fd006 	br	12028e8 <__alt_mem_instruction_tcm+0xff2028e8>
 12029a8:	8882000c 	andi	r2,r17,2048
 12029ac:	103fce26 	beq	r2,zero,12028e8 <__alt_mem_instruction_tcm+0xff2028e8>
 12029b0:	8000021e 	bne	r16,zero,12029bc <__ssvfscanf_r+0xf3c>
 12029b4:	8c408014 	ori	r17,r17,512
 12029b8:	04000204 	movi	r16,8
 12029bc:	8881000c 	andi	r2,r17,1024
 12029c0:	1000ef1e 	bne	r2,zero,1202d80 <__ssvfscanf_r+0x1300>
 12029c4:	00bf1fc4 	movi	r2,-897
 12029c8:	88a2703a 	and	r17,r17,r2
 12029cc:	38000226 	beq	r7,zero,12029d8 <__ssvfscanf_r+0xf58>
 12029d0:	39ffffc4 	addi	r7,r7,-1
 12029d4:	e7000044 	addi	fp,fp,1
 12029d8:	b8800117 	ldw	r2,4(r23)
 12029dc:	94800044 	addi	r18,r18,1
 12029e0:	10bfffc4 	addi	r2,r2,-1
 12029e4:	b8800115 	stw	r2,4(r23)
 12029e8:	00bfc516 	blt	zero,r2,1202900 <__alt_mem_instruction_tcm+0xff202900>
 12029ec:	b009883a 	mov	r4,r22
 12029f0:	b80b883a 	mov	r5,r23
 12029f4:	d8c0aa15 	stw	r3,680(sp)
 12029f8:	d980a615 	stw	r6,664(sp)
 12029fc:	d9c0a815 	stw	r7,672(sp)
 1202a00:	da00a915 	stw	r8,676(sp)
 1202a04:	da40a715 	stw	r9,668(sp)
 1202a08:	da80a515 	stw	r10,660(sp)
 1202a0c:	12071080 	call	1207108 <__ssrefill_r>
 1202a10:	d8c0aa17 	ldw	r3,680(sp)
 1202a14:	d980a617 	ldw	r6,664(sp)
 1202a18:	d9c0a817 	ldw	r7,672(sp)
 1202a1c:	da00a917 	ldw	r8,676(sp)
 1202a20:	da40a717 	ldw	r9,668(sp)
 1202a24:	da80a517 	ldw	r10,660(sp)
 1202a28:	103fb726 	beq	r2,zero,1202908 <__alt_mem_instruction_tcm+0xff202908>
 1202a2c:	003fb806 	br	1202910 <__alt_mem_instruction_tcm+0xff202910>
 1202a30:	8880200c 	andi	r2,r17,128
 1202a34:	103fb626 	beq	r2,zero,1202910 <__alt_mem_instruction_tcm+0xff202910>
 1202a38:	88e2703a 	and	r17,r17,r3
 1202a3c:	003faa06 	br	12028e8 <__alt_mem_instruction_tcm+0xff2028e8>
 1202a40:	b009883a 	mov	r4,r22
 1202a44:	b80b883a 	mov	r5,r23
 1202a48:	d8c0aa15 	stw	r3,680(sp)
 1202a4c:	da00a915 	stw	r8,676(sp)
 1202a50:	dac0a515 	stw	r11,660(sp)
 1202a54:	12071080 	call	1207108 <__ssrefill_r>
 1202a58:	d8c0aa17 	ldw	r3,680(sp)
 1202a5c:	da00a917 	ldw	r8,676(sp)
 1202a60:	dac0a517 	ldw	r11,660(sp)
 1202a64:	103d8b1e 	bne	r2,zero,1202094 <__alt_mem_instruction_tcm+0xff202094>
 1202a68:	803d0a1e 	bne	r16,zero,1201e94 <__alt_mem_instruction_tcm+0xff201e94>
 1202a6c:	003d8906 	br	1202094 <__alt_mem_instruction_tcm+0xff202094>
 1202a70:	00bfbfc4 	movi	r2,-257
 1202a74:	80a0703a 	and	r16,r16,r2
 1202a78:	003d8c06 	br	12020ac <__alt_mem_instruction_tcm+0xff2020ac>
 1202a7c:	000f883a 	mov	r7,zero
 1202a80:	003f3106 	br	1202748 <__alt_mem_instruction_tcm+0xff202748>
 1202a84:	d800a315 	stw	zero,652(sp)
 1202a88:	003cf306 	br	1201e58 <__alt_mem_instruction_tcm+0xff201e58>
 1202a8c:	dac09c17 	ldw	r11,624(sp)
 1202a90:	e0ffffc4 	addi	r3,fp,-1
 1202a94:	dc405884 	addi	r17,sp,354
 1202a98:	5c000017 	ldw	r16,0(r11)
 1202a9c:	5a000104 	addi	r8,r11,4
 1202aa0:	da009c15 	stw	r8,624(sp)
 1202aa4:	800b883a 	mov	r5,r16
 1202aa8:	80e9883a 	add	r20,r16,r3
 1202aac:	00000106 	br	1202ab4 <__ssvfscanf_r+0x1034>
 1202ab0:	e00b883a 	mov	r5,fp
 1202ab4:	b8c00017 	ldw	r3,0(r23)
 1202ab8:	280d883a 	mov	r6,r5
 1202abc:	18800003 	ldbu	r2,0(r3)
 1202ac0:	8885883a 	add	r2,r17,r2
 1202ac4:	10800007 	ldb	r2,0(r2)
 1202ac8:	1000f626 	beq	r2,zero,1202ea4 <__ssvfscanf_r+0x1424>
 1202acc:	b8800117 	ldw	r2,4(r23)
 1202ad0:	19c00044 	addi	r7,r3,1
 1202ad4:	b9c00015 	stw	r7,0(r23)
 1202ad8:	10bfffc4 	addi	r2,r2,-1
 1202adc:	b8800115 	stw	r2,4(r23)
 1202ae0:	18800003 	ldbu	r2,0(r3)
 1202ae4:	37000044 	addi	fp,r6,1
 1202ae8:	28800005 	stb	r2,0(r5)
 1202aec:	3500e426 	beq	r6,r20,1202e80 <__ssvfscanf_r+0x1400>
 1202af0:	b8800117 	ldw	r2,4(r23)
 1202af4:	00bfee16 	blt	zero,r2,1202ab0 <__alt_mem_instruction_tcm+0xff202ab0>
 1202af8:	b009883a 	mov	r4,r22
 1202afc:	b80b883a 	mov	r5,r23
 1202b00:	12071080 	call	1207108 <__ssrefill_r>
 1202b04:	103fea26 	beq	r2,zero,1202ab0 <__alt_mem_instruction_tcm+0xff202ab0>
 1202b08:	e009883a 	mov	r4,fp
 1202b0c:	8700dd1e 	bne	r16,fp,1202e84 <__ssvfscanf_r+0x1404>
 1202b10:	003e3006 	br	12023d4 <__alt_mem_instruction_tcm+0xff2023d4>
 1202b14:	da009c17 	ldw	r8,624(sp)
 1202b18:	e0ffffc4 	addi	r3,fp,-1
 1202b1c:	44400017 	ldw	r17,0(r8)
 1202b20:	42c00104 	addi	r11,r8,4
 1202b24:	dac09c15 	stw	r11,624(sp)
 1202b28:	88e9883a 	add	r20,r17,r3
 1202b2c:	880b883a 	mov	r5,r17
 1202b30:	00000106 	br	1202b38 <__ssvfscanf_r+0x10b8>
 1202b34:	800b883a 	mov	r5,r16
 1202b38:	b8c00017 	ldw	r3,0(r23)
 1202b3c:	a9800017 	ldw	r6,0(r21)
 1202b40:	18800003 	ldbu	r2,0(r3)
 1202b44:	3085883a 	add	r2,r6,r2
 1202b48:	10800043 	ldbu	r2,1(r2)
 1202b4c:	1080020c 	andi	r2,r2,8
 1202b50:	1000ea1e 	bne	r2,zero,1202efc <__ssvfscanf_r+0x147c>
 1202b54:	b8800117 	ldw	r2,4(r23)
 1202b58:	19800044 	addi	r6,r3,1
 1202b5c:	b9800015 	stw	r6,0(r23)
 1202b60:	10bfffc4 	addi	r2,r2,-1
 1202b64:	b8800115 	stw	r2,4(r23)
 1202b68:	18800003 	ldbu	r2,0(r3)
 1202b6c:	2c000044 	addi	r16,r5,1
 1202b70:	8039883a 	mov	fp,r16
 1202b74:	28800005 	stb	r2,0(r5)
 1202b78:	2d000626 	beq	r5,r20,1202b94 <__ssvfscanf_r+0x1114>
 1202b7c:	b8800117 	ldw	r2,4(r23)
 1202b80:	00bfec16 	blt	zero,r2,1202b34 <__alt_mem_instruction_tcm+0xff202b34>
 1202b84:	b009883a 	mov	r4,r22
 1202b88:	b80b883a 	mov	r5,r23
 1202b8c:	12071080 	call	1207108 <__ssrefill_r>
 1202b90:	103fe826 	beq	r2,zero,1202b34 <__alt_mem_instruction_tcm+0xff202b34>
 1202b94:	da009f17 	ldw	r8,636(sp)
 1202b98:	e463c83a 	sub	r17,fp,r17
 1202b9c:	9c67883a 	add	r19,r19,r17
 1202ba0:	42000044 	addi	r8,r8,1
 1202ba4:	e0000005 	stb	zero,0(fp)
 1202ba8:	da009f15 	stw	r8,636(sp)
 1202bac:	9023883a 	mov	r17,r18
 1202bb0:	003bf206 	br	1201b7c <__alt_mem_instruction_tcm+0xff201b7c>
 1202bb4:	014000c4 	movi	r5,3
 1202bb8:	117db026 	beq	r2,r5,120227c <__alt_mem_instruction_tcm+0xff20227c>
 1202bbc:	01400144 	movi	r5,5
 1202bc0:	117dae26 	beq	r2,r5,120227c <__alt_mem_instruction_tcm+0xff20227c>
 1202bc4:	003d3306 	br	1202094 <__alt_mem_instruction_tcm+0xff202094>
 1202bc8:	00800084 	movi	r2,2
 1202bcc:	a0bda41e 	bne	r20,r2,1202260 <__alt_mem_instruction_tcm+0xff202260>
 1202bd0:	050000c4 	movi	r20,3
 1202bd4:	003d2406 	br	1202068 <__alt_mem_instruction_tcm+0xff202068>
 1202bd8:	d9c09e17 	ldw	r7,632(sp)
 1202bdc:	da00a017 	ldw	r8,640(sp)
 1202be0:	b009883a 	mov	r4,r22
 1202be4:	d9400104 	addi	r5,sp,4
 1202be8:	000d883a 	mov	r6,zero
 1202bec:	a0000005 	stb	zero,0(r20)
 1202bf0:	403ee83a 	callr	r8
 1202bf4:	88c0080c 	andi	r3,r17,32
 1202bf8:	18008226 	beq	r3,zero,1202e04 <__ssvfscanf_r+0x1384>
 1202bfc:	dac09c17 	ldw	r11,624(sp)
 1202c00:	58c00017 	ldw	r3,0(r11)
 1202c04:	5ac00104 	addi	r11,r11,4
 1202c08:	dac09c15 	stw	r11,624(sp)
 1202c0c:	18800015 	stw	r2,0(r3)
 1202c10:	da009f17 	ldw	r8,636(sp)
 1202c14:	42000044 	addi	r8,r8,1
 1202c18:	da009f15 	stw	r8,636(sp)
 1202c1c:	003f4706 	br	120293c <__alt_mem_instruction_tcm+0xff20293c>
 1202c20:	d8c09904 	addi	r3,sp,612
 1202c24:	8400040c 	andi	r16,r16,16
 1202c28:	1809883a 	mov	r4,r3
 1202c2c:	000b883a 	mov	r5,zero
 1202c30:	01800204 	movi	r6,8
 1202c34:	d8c09d15 	stw	r3,628(sp)
 1202c38:	12013b00 	call	12013b0 <memset>
 1202c3c:	80006c26 	beq	r16,zero,1202df0 <__ssvfscanf_r+0x1370>
 1202c40:	dc409b04 	addi	r17,sp,620
 1202c44:	0007883a 	mov	r3,zero
 1202c48:	dc80a115 	stw	r18,644(sp)
 1202c4c:	8025883a 	mov	r18,r16
 1202c50:	1821883a 	mov	r16,r3
 1202c54:	b8800017 	ldw	r2,0(r23)
 1202c58:	a8c00017 	ldw	r3,0(r21)
 1202c5c:	10800003 	ldbu	r2,0(r2)
 1202c60:	1885883a 	add	r2,r3,r2
 1202c64:	10800043 	ldbu	r2,1(r2)
 1202c68:	1080020c 	andi	r2,r2,8
 1202c6c:	1000011e 	bne	r2,zero,1202c74 <__ssvfscanf_r+0x11f4>
 1202c70:	e000f51e 	bne	fp,zero,1203048 <__ssvfscanf_r+0x15c8>
 1202c74:	9021883a 	mov	r16,r18
 1202c78:	dc80a117 	ldw	r18,644(sp)
 1202c7c:	803bbe1e 	bne	r16,zero,1201b78 <__alt_mem_instruction_tcm+0xff201b78>
 1202c80:	dac09f17 	ldw	r11,636(sp)
 1202c84:	88000015 	stw	zero,0(r17)
 1202c88:	9023883a 	mov	r17,r18
 1202c8c:	5ac00044 	addi	r11,r11,1
 1202c90:	dac09f15 	stw	r11,636(sp)
 1202c94:	003bb906 	br	1201b7c <__alt_mem_instruction_tcm+0xff201b7c>
 1202c98:	dac09904 	addi	r11,sp,612
 1202c9c:	8400040c 	andi	r16,r16,16
 1202ca0:	5809883a 	mov	r4,r11
 1202ca4:	000b883a 	mov	r5,zero
 1202ca8:	01800204 	movi	r6,8
 1202cac:	dc00a115 	stw	r16,644(sp)
 1202cb0:	dac09d15 	stw	r11,628(sp)
 1202cb4:	12013b00 	call	12013b0 <memset>
 1202cb8:	dc00a117 	ldw	r16,644(sp)
 1202cbc:	80004726 	beq	r16,zero,1202ddc <__ssvfscanf_r+0x135c>
 1202cc0:	0023883a 	mov	r17,zero
 1202cc4:	dc00a117 	ldw	r16,644(sp)
 1202cc8:	0029883a 	mov	r20,zero
 1202ccc:	dc80a215 	stw	r18,648(sp)
 1202cd0:	1203f740 	call	1203f74 <__locale_mb_cur_max>
 1202cd4:	153dbf26 	beq	r2,r20,12023d4 <__alt_mem_instruction_tcm+0xff2023d4>
 1202cd8:	b8800017 	ldw	r2,0(r23)
 1202cdc:	b9000117 	ldw	r4,4(r23)
 1202ce0:	d8c09d17 	ldw	r3,628(sp)
 1202ce4:	12400003 	ldbu	r9,0(r2)
 1202ce8:	213fffc4 	addi	r4,r4,-1
 1202cec:	10800044 	addi	r2,r2,1
 1202cf0:	dac00104 	addi	r11,sp,4
 1202cf4:	b9000115 	stw	r4,4(r23)
 1202cf8:	b8800015 	stw	r2,0(r23)
 1202cfc:	a4800044 	addi	r18,r20,1
 1202d00:	d8c00015 	stw	r3,0(sp)
 1202d04:	5d29883a 	add	r20,r11,r20
 1202d08:	b009883a 	mov	r4,r22
 1202d0c:	880b883a 	mov	r5,r17
 1202d10:	580d883a 	mov	r6,r11
 1202d14:	900f883a 	mov	r7,r18
 1202d18:	a2400005 	stb	r9,0(r20)
 1202d1c:	12041e00 	call	12041e0 <_mbrtowc_r>
 1202d20:	013fffc4 	movi	r4,-1
 1202d24:	113dab26 	beq	r2,r4,12023d4 <__alt_mem_instruction_tcm+0xff2023d4>
 1202d28:	10004f1e 	bne	r2,zero,1202e68 <__ssvfscanf_r+0x13e8>
 1202d2c:	8000011e 	bne	r16,zero,1202d34 <__ssvfscanf_r+0x12b4>
 1202d30:	88000015 	stw	zero,0(r17)
 1202d34:	9ca7883a 	add	r19,r19,r18
 1202d38:	e73fffc4 	addi	fp,fp,-1
 1202d3c:	80004e1e 	bne	r16,zero,1202e78 <__ssvfscanf_r+0x13f8>
 1202d40:	8c400104 	addi	r17,r17,4
 1202d44:	0029883a 	mov	r20,zero
 1202d48:	b8800117 	ldw	r2,4(r23)
 1202d4c:	00801c0e 	bge	zero,r2,1202dc0 <__ssvfscanf_r+0x1340>
 1202d50:	e03fdf1e 	bne	fp,zero,1202cd0 <__alt_mem_instruction_tcm+0xff202cd0>
 1202d54:	dc80a217 	ldw	r18,648(sp)
 1202d58:	da00a117 	ldw	r8,644(sp)
 1202d5c:	403d1e26 	beq	r8,zero,12021d8 <__alt_mem_instruction_tcm+0xff2021d8>
 1202d60:	003b8506 	br	1201b78 <__alt_mem_instruction_tcm+0xff201b78>
 1202d64:	da009c17 	ldw	r8,624(sp)
 1202d68:	40800017 	ldw	r2,0(r8)
 1202d6c:	42000104 	addi	r8,r8,4
 1202d70:	da009c15 	stw	r8,624(sp)
 1202d74:	14400015 	stw	r17,0(r2)
 1202d78:	10c00115 	stw	r3,4(r2)
 1202d7c:	003d1606 	br	12021d8 <__alt_mem_instruction_tcm+0xff2021d8>
 1202d80:	00be9fc4 	movi	r2,-1409
 1202d84:	88a2703a 	and	r17,r17,r2
 1202d88:	003ed706 	br	12028e8 <__alt_mem_instruction_tcm+0xff2028e8>
 1202d8c:	8821883a 	mov	r16,r17
 1202d90:	00bfbfc4 	movi	r2,-257
 1202d94:	9023883a 	mov	r17,r18
 1202d98:	e00f883a 	mov	r7,fp
 1202d9c:	4025883a 	mov	r18,r8
 1202da0:	80a0703a 	and	r16,r16,r2
 1202da4:	003cc106 	br	12020ac <__alt_mem_instruction_tcm+0xff2020ac>
 1202da8:	8941c00c 	andi	r5,r17,1792
 1202dac:	0081c004 	movi	r2,1792
 1202db0:	28bd2b1e 	bne	r5,r2,1202260 <__alt_mem_instruction_tcm+0xff202260>
 1202db4:	88e2703a 	and	r17,r17,r3
 1202db8:	05000044 	movi	r20,1
 1202dbc:	003caa06 	br	1202068 <__alt_mem_instruction_tcm+0xff202068>
 1202dc0:	b009883a 	mov	r4,r22
 1202dc4:	b80b883a 	mov	r5,r23
 1202dc8:	12071080 	call	1207108 <__ssrefill_r>
 1202dcc:	103fe026 	beq	r2,zero,1202d50 <__alt_mem_instruction_tcm+0xff202d50>
 1202dd0:	dc80a217 	ldw	r18,648(sp)
 1202dd4:	a03fe026 	beq	r20,zero,1202d58 <__alt_mem_instruction_tcm+0xff202d58>
 1202dd8:	003d7e06 	br	12023d4 <__alt_mem_instruction_tcm+0xff2023d4>
 1202ddc:	da009c17 	ldw	r8,624(sp)
 1202de0:	44400017 	ldw	r17,0(r8)
 1202de4:	42000104 	addi	r8,r8,4
 1202de8:	da009c15 	stw	r8,624(sp)
 1202dec:	003fb506 	br	1202cc4 <__alt_mem_instruction_tcm+0xff202cc4>
 1202df0:	da009c17 	ldw	r8,624(sp)
 1202df4:	44400017 	ldw	r17,0(r8)
 1202df8:	42000104 	addi	r8,r8,4
 1202dfc:	da009c15 	stw	r8,624(sp)
 1202e00:	003f9006 	br	1202c44 <__alt_mem_instruction_tcm+0xff202c44>
 1202e04:	88c0010c 	andi	r3,r17,4
 1202e08:	18006726 	beq	r3,zero,1202fa8 <__ssvfscanf_r+0x1528>
 1202e0c:	da009c17 	ldw	r8,624(sp)
 1202e10:	40c00017 	ldw	r3,0(r8)
 1202e14:	42000104 	addi	r8,r8,4
 1202e18:	da009c15 	stw	r8,624(sp)
 1202e1c:	1880000d 	sth	r2,0(r3)
 1202e20:	003f7b06 	br	1202c10 <__alt_mem_instruction_tcm+0xff202c10>
 1202e24:	da00a417 	ldw	r8,656(sp)
 1202e28:	000d883a 	mov	r6,zero
 1202e2c:	01c00284 	movi	r7,10
 1202e30:	b009883a 	mov	r4,r22
 1202e34:	41400044 	addi	r5,r8,1
 1202e38:	12064780 	call	1206478 <_strtol_r>
 1202e3c:	dac0a217 	ldw	r11,648(sp)
 1202e40:	d9c0a417 	ldw	r7,656(sp)
 1202e44:	12cdc83a 	sub	r6,r2,r11
 1202e48:	d88055c4 	addi	r2,sp,343
 1202e4c:	38800136 	bltu	r7,r2,1202e54 <__ssvfscanf_r+0x13d4>
 1202e50:	d9c05584 	addi	r7,sp,342
 1202e54:	014048b4 	movhi	r5,290
 1202e58:	297f7e04 	addi	r5,r5,-520
 1202e5c:	3809883a 	mov	r4,r7
 1202e60:	1204d080 	call	1204d08 <sprintf>
 1202e64:	003ccd06 	br	120219c <__alt_mem_instruction_tcm+0xff20219c>
 1202e68:	017fff84 	movi	r5,-2
 1202e6c:	117fb11e 	bne	r2,r5,1202d34 <__alt_mem_instruction_tcm+0xff202d34>
 1202e70:	9029883a 	mov	r20,r18
 1202e74:	003fb406 	br	1202d48 <__alt_mem_instruction_tcm+0xff202d48>
 1202e78:	0029883a 	mov	r20,zero
 1202e7c:	003fb206 	br	1202d48 <__alt_mem_instruction_tcm+0xff202d48>
 1202e80:	e009883a 	mov	r4,fp
 1202e84:	2421c83a 	sub	r16,r4,r16
 1202e88:	803b4026 	beq	r16,zero,1201b8c <__alt_mem_instruction_tcm+0xff201b8c>
 1202e8c:	dac09f17 	ldw	r11,636(sp)
 1202e90:	20000005 	stb	zero,0(r4)
 1202e94:	9c27883a 	add	r19,r19,r16
 1202e98:	5ac00044 	addi	r11,r11,1
 1202e9c:	dac09f15 	stw	r11,636(sp)
 1202ea0:	003dea06 	br	120264c <__alt_mem_instruction_tcm+0xff20264c>
 1202ea4:	2809883a 	mov	r4,r5
 1202ea8:	003ff606 	br	1202e84 <__alt_mem_instruction_tcm+0xff202e84>
 1202eac:	803d4926 	beq	r16,zero,12023d4 <__alt_mem_instruction_tcm+0xff2023d4>
 1202eb0:	9c27883a 	add	r19,r19,r16
 1202eb4:	003de506 	br	120264c <__alt_mem_instruction_tcm+0xff20264c>
 1202eb8:	da009c17 	ldw	r8,624(sp)
 1202ebc:	ddc00015 	stw	r23,0(sp)
 1202ec0:	b009883a 	mov	r4,r22
 1202ec4:	41400017 	ldw	r5,0(r8)
 1202ec8:	01800044 	movi	r6,1
 1202ecc:	e00f883a 	mov	r7,fp
 1202ed0:	12071780 	call	1207178 <_sfread_r>
 1202ed4:	dac09c17 	ldw	r11,624(sp)
 1202ed8:	58c00104 	addi	r3,r11,4
 1202edc:	103d3d26 	beq	r2,zero,12023d4 <__alt_mem_instruction_tcm+0xff2023d4>
 1202ee0:	da009f17 	ldw	r8,636(sp)
 1202ee4:	14e7883a 	add	r19,r2,r19
 1202ee8:	d8c09c15 	stw	r3,624(sp)
 1202eec:	42000044 	addi	r8,r8,1
 1202ef0:	da009f15 	stw	r8,636(sp)
 1202ef4:	9023883a 	mov	r17,r18
 1202ef8:	003b2006 	br	1201b7c <__alt_mem_instruction_tcm+0xff201b7c>
 1202efc:	2839883a 	mov	fp,r5
 1202f00:	003f2406 	br	1202b94 <__alt_mem_instruction_tcm+0xff202b94>
 1202f04:	b009883a 	mov	r4,r22
 1202f08:	b80b883a 	mov	r5,r23
 1202f0c:	12071080 	call	1207108 <__ssrefill_r>
 1202f10:	103bad26 	beq	r2,zero,1201dc8 <__alt_mem_instruction_tcm+0xff201dc8>
 1202f14:	003d2f06 	br	12023d4 <__alt_mem_instruction_tcm+0xff2023d4>
 1202f18:	a17fffc7 	ldb	r5,-1(r20)
 1202f1c:	b009883a 	mov	r4,r22
 1202f20:	b80d883a 	mov	r6,r23
 1202f24:	a53fffc4 	addi	r20,r20,-1
 1202f28:	12070100 	call	1207010 <_sungetc_r>
 1202f2c:	003e7f06 	br	120292c <__alt_mem_instruction_tcm+0xff20292c>
 1202f30:	90c00083 	ldbu	r3,2(r18)
 1202f34:	84000094 	ori	r16,r16,2
 1202f38:	94800084 	addi	r18,r18,2
 1202f3c:	003b1d06 	br	1201bb4 <__alt_mem_instruction_tcm+0xff201bb4>
 1202f40:	da009d17 	ldw	r8,628(sp)
 1202f44:	dac0a117 	ldw	r11,644(sp)
 1202f48:	42c5c83a 	sub	r2,r8,r11
 1202f4c:	008dc83a 	sub	r6,zero,r2
 1202f50:	103fbd1e 	bne	r2,zero,1202e48 <__alt_mem_instruction_tcm+0xff202e48>
 1202f54:	003c9106 	br	120219c <__alt_mem_instruction_tcm+0xff20219c>
 1202f58:	80e0b03a 	or	r16,r16,r3
 1202f5c:	003d3d06 	br	1202454 <__alt_mem_instruction_tcm+0xff202454>
 1202f60:	8080004c 	andi	r2,r16,1
 1202f64:	10000a1e 	bne	r2,zero,1202f90 <__ssvfscanf_r+0x1510>
 1202f68:	8400008c 	andi	r16,r16,2
 1202f6c:	80000826 	beq	r16,zero,1202f90 <__ssvfscanf_r+0x1510>
 1202f70:	dac09c17 	ldw	r11,624(sp)
 1202f74:	9807d7fa 	srai	r3,r19,31
 1202f78:	58800017 	ldw	r2,0(r11)
 1202f7c:	5ac00104 	addi	r11,r11,4
 1202f80:	dac09c15 	stw	r11,624(sp)
 1202f84:	14c00015 	stw	r19,0(r2)
 1202f88:	10c00115 	stw	r3,4(r2)
 1202f8c:	003afa06 	br	1201b78 <__alt_mem_instruction_tcm+0xff201b78>
 1202f90:	da009c17 	ldw	r8,624(sp)
 1202f94:	40800017 	ldw	r2,0(r8)
 1202f98:	42000104 	addi	r8,r8,4
 1202f9c:	da009c15 	stw	r8,624(sp)
 1202fa0:	14c00015 	stw	r19,0(r2)
 1202fa4:	003af406 	br	1201b78 <__alt_mem_instruction_tcm+0xff201b78>
 1202fa8:	88c0004c 	andi	r3,r17,1
 1202fac:	183f131e 	bne	r3,zero,1202bfc <__alt_mem_instruction_tcm+0xff202bfc>
 1202fb0:	88c0008c 	andi	r3,r17,2
 1202fb4:	183f1126 	beq	r3,zero,1202bfc <__alt_mem_instruction_tcm+0xff202bfc>
 1202fb8:	da00a017 	ldw	r8,640(sp)
 1202fbc:	02c04834 	movhi	r11,288
 1202fc0:	5ada8404 	addi	r11,r11,27152
 1202fc4:	b009883a 	mov	r4,r22
 1202fc8:	d9400104 	addi	r5,sp,4
 1202fcc:	000d883a 	mov	r6,zero
 1202fd0:	d9c09e17 	ldw	r7,632(sp)
 1202fd4:	42c08226 	beq	r8,r11,12031e0 <__ssvfscanf_r+0x1760>
 1202fd8:	12066fc0 	call	12066fc <_strtoll_r>
 1202fdc:	da009c17 	ldw	r8,624(sp)
 1202fe0:	41000017 	ldw	r4,0(r8)
 1202fe4:	42000104 	addi	r8,r8,4
 1202fe8:	da009c15 	stw	r8,624(sp)
 1202fec:	20800015 	stw	r2,0(r4)
 1202ff0:	20c00115 	stw	r3,4(r4)
 1202ff4:	003f0606 	br	1202c10 <__alt_mem_instruction_tcm+0xff202c10>
 1202ff8:	da009c17 	ldw	r8,624(sp)
 1202ffc:	180b883a 	mov	r5,r3
 1203000:	8809883a 	mov	r4,r17
 1203004:	45000017 	ldw	r20,0(r8)
 1203008:	44000104 	addi	r16,r8,4
 120300c:	d8c0aa15 	stw	r3,680(sp)
 1203010:	1204b740 	call	1204b74 <__fpclassifyd>
 1203014:	d8c0aa17 	ldw	r3,680(sp)
 1203018:	10000626 	beq	r2,zero,1203034 <__ssvfscanf_r+0x15b4>
 120301c:	8809883a 	mov	r4,r17
 1203020:	180b883a 	mov	r5,r3
 1203024:	12124600 	call	1212460 <__truncdfsf2>
 1203028:	a0800015 	stw	r2,0(r20)
 120302c:	dc009c15 	stw	r16,624(sp)
 1203030:	003c6906 	br	12021d8 <__alt_mem_instruction_tcm+0xff2021d8>
 1203034:	0009883a 	mov	r4,zero
 1203038:	1204ca80 	call	1204ca8 <nanf>
 120303c:	a0800015 	stw	r2,0(r20)
 1203040:	dc009c15 	stw	r16,624(sp)
 1203044:	003c6406 	br	12021d8 <__alt_mem_instruction_tcm+0xff2021d8>
 1203048:	1203f740 	call	1203f74 <__locale_mb_cur_max>
 120304c:	143ce126 	beq	r2,r16,12023d4 <__alt_mem_instruction_tcm+0xff2023d4>
 1203050:	b8800017 	ldw	r2,0(r23)
 1203054:	b9000117 	ldw	r4,4(r23)
 1203058:	d8c09d17 	ldw	r3,628(sp)
 120305c:	12000003 	ldbu	r8,0(r2)
 1203060:	213fffc4 	addi	r4,r4,-1
 1203064:	10800044 	addi	r2,r2,1
 1203068:	dac00104 	addi	r11,sp,4
 120306c:	b9000115 	stw	r4,4(r23)
 1203070:	b8800015 	stw	r2,0(r23)
 1203074:	85000044 	addi	r20,r16,1
 1203078:	d8c00015 	stw	r3,0(sp)
 120307c:	5c21883a 	add	r16,r11,r16
 1203080:	b009883a 	mov	r4,r22
 1203084:	880b883a 	mov	r5,r17
 1203088:	580d883a 	mov	r6,r11
 120308c:	a00f883a 	mov	r7,r20
 1203090:	82000005 	stb	r8,0(r16)
 1203094:	12041e00 	call	12041e0 <_mbrtowc_r>
 1203098:	013fffc4 	movi	r4,-1
 120309c:	113ccd26 	beq	r2,r4,12023d4 <__alt_mem_instruction_tcm+0xff2023d4>
 12030a0:	1000131e 	bne	r2,zero,12030f0 <__ssvfscanf_r+0x1670>
 12030a4:	88000015 	stw	zero,0(r17)
 12030a8:	0009883a 	mov	r4,zero
 12030ac:	1203ebc0 	call	1203ebc <iswspace>
 12030b0:	10001d26 	beq	r2,zero,1203128 <__ssvfscanf_r+0x16a8>
 12030b4:	9021883a 	mov	r16,r18
 12030b8:	dc80a117 	ldw	r18,644(sp)
 12030bc:	a03eef26 	beq	r20,zero,1202c7c <__alt_mem_instruction_tcm+0xff202c7c>
 12030c0:	a53fffc4 	addi	r20,r20,-1
 12030c4:	da000104 	addi	r8,sp,4
 12030c8:	4505883a 	add	r2,r8,r20
 12030cc:	11400003 	ldbu	r5,0(r2)
 12030d0:	b009883a 	mov	r4,r22
 12030d4:	b80d883a 	mov	r6,r23
 12030d8:	12070100 	call	1207010 <_sungetc_r>
 12030dc:	a03ff81e 	bne	r20,zero,12030c0 <__alt_mem_instruction_tcm+0xff2030c0>
 12030e0:	003ee606 	br	1202c7c <__alt_mem_instruction_tcm+0xff202c7c>
 12030e4:	88e2703a 	and	r17,r17,r3
 12030e8:	04800044 	movi	r18,1
 12030ec:	003bde06 	br	1202068 <__alt_mem_instruction_tcm+0xff202068>
 12030f0:	017fff84 	movi	r5,-2
 12030f4:	1140121e 	bne	r2,r5,1203140 <__ssvfscanf_r+0x16c0>
 12030f8:	a021883a 	mov	r16,r20
 12030fc:	b8800117 	ldw	r2,4(r23)
 1203100:	00bed416 	blt	zero,r2,1202c54 <__alt_mem_instruction_tcm+0xff202c54>
 1203104:	b009883a 	mov	r4,r22
 1203108:	b80b883a 	mov	r5,r23
 120310c:	12071080 	call	1207108 <__ssrefill_r>
 1203110:	103ed026 	beq	r2,zero,1202c54 <__alt_mem_instruction_tcm+0xff202c54>
 1203114:	8007883a 	mov	r3,r16
 1203118:	9021883a 	mov	r16,r18
 120311c:	dc80a117 	ldw	r18,644(sp)
 1203120:	183cac1e 	bne	r3,zero,12023d4 <__alt_mem_instruction_tcm+0xff2023d4>
 1203124:	003ed506 	br	1202c7c <__alt_mem_instruction_tcm+0xff202c7c>
 1203128:	9d27883a 	add	r19,r19,r20
 120312c:	e73fffc4 	addi	fp,fp,-1
 1203130:	9000051e 	bne	r18,zero,1203148 <__ssvfscanf_r+0x16c8>
 1203134:	8c400104 	addi	r17,r17,4
 1203138:	0021883a 	mov	r16,zero
 120313c:	003fef06 	br	12030fc <__alt_mem_instruction_tcm+0xff2030fc>
 1203140:	89000017 	ldw	r4,0(r17)
 1203144:	003fd906 	br	12030ac <__alt_mem_instruction_tcm+0xff2030ac>
 1203148:	0021883a 	mov	r16,zero
 120314c:	003feb06 	br	12030fc <__alt_mem_instruction_tcm+0xff2030fc>
 1203150:	d9000104 	addi	r4,sp,4
 1203154:	b839883a 	mov	fp,r23
 1203158:	3821883a 	mov	r16,r7
 120315c:	21fa8b2e 	bgeu	r4,r7,1201b8c <__alt_mem_instruction_tcm+0xff201b8c>
 1203160:	843fffc4 	addi	r16,r16,-1
 1203164:	81400007 	ldb	r5,0(r16)
 1203168:	b009883a 	mov	r4,r22
 120316c:	e00d883a 	mov	r6,fp
 1203170:	12070100 	call	1207010 <_sungetc_r>
 1203174:	d9400104 	addi	r5,sp,4
 1203178:	817ff91e 	bne	r16,r5,1203160 <__alt_mem_instruction_tcm+0xff203160>
 120317c:	003a8306 	br	1201b8c <__alt_mem_instruction_tcm+0xff201b8c>
 1203180:	da000104 	addi	r8,sp,4
 1203184:	b839883a 	mov	fp,r23
 1203188:	3821883a 	mov	r16,r7
 120318c:	41fa7f2e 	bgeu	r8,r7,1201b8c <__alt_mem_instruction_tcm+0xff201b8c>
 1203190:	843fffc4 	addi	r16,r16,-1
 1203194:	81400007 	ldb	r5,0(r16)
 1203198:	b009883a 	mov	r4,r22
 120319c:	e00d883a 	mov	r6,fp
 12031a0:	12070100 	call	1207010 <_sungetc_r>
 12031a4:	dac00104 	addi	r11,sp,4
 12031a8:	82fff91e 	bne	r16,r11,1203190 <__alt_mem_instruction_tcm+0xff203190>
 12031ac:	003a7706 	br	1201b8c <__alt_mem_instruction_tcm+0xff201b8c>
 12031b0:	d8800104 	addi	r2,sp,4
 12031b4:	b839883a 	mov	fp,r23
 12031b8:	382f883a 	mov	r23,r7
 12031bc:	11fa732e 	bgeu	r2,r7,1201b8c <__alt_mem_instruction_tcm+0xff201b8c>
 12031c0:	bdffffc4 	addi	r23,r23,-1
 12031c4:	b9400007 	ldb	r5,0(r23)
 12031c8:	b009883a 	mov	r4,r22
 12031cc:	e00d883a 	mov	r6,fp
 12031d0:	12070100 	call	1207010 <_sungetc_r>
 12031d4:	d8c00104 	addi	r3,sp,4
 12031d8:	b8fff91e 	bne	r23,r3,12031c0 <__alt_mem_instruction_tcm+0xff2031c0>
 12031dc:	003a6b06 	br	1201b8c <__alt_mem_instruction_tcm+0xff201b8c>
 12031e0:	1206cbc0 	call	1206cbc <_strtoull_r>
 12031e4:	003f7d06 	br	1202fdc <__alt_mem_instruction_tcm+0xff202fdc>

012031e8 <_write_r>:
 12031e8:	defffd04 	addi	sp,sp,-12
 12031ec:	dc000015 	stw	r16,0(sp)
 12031f0:	040048b4 	movhi	r16,290
 12031f4:	dc400115 	stw	r17,4(sp)
 12031f8:	84087504 	addi	r16,r16,8660
 12031fc:	2023883a 	mov	r17,r4
 1203200:	2809883a 	mov	r4,r5
 1203204:	300b883a 	mov	r5,r6
 1203208:	380d883a 	mov	r6,r7
 120320c:	dfc00215 	stw	ra,8(sp)
 1203210:	80000015 	stw	zero,0(r16)
 1203214:	1212e400 	call	1212e40 <write>
 1203218:	00ffffc4 	movi	r3,-1
 120321c:	10c00526 	beq	r2,r3,1203234 <_write_r+0x4c>
 1203220:	dfc00217 	ldw	ra,8(sp)
 1203224:	dc400117 	ldw	r17,4(sp)
 1203228:	dc000017 	ldw	r16,0(sp)
 120322c:	dec00304 	addi	sp,sp,12
 1203230:	f800283a 	ret
 1203234:	80c00017 	ldw	r3,0(r16)
 1203238:	183ff926 	beq	r3,zero,1203220 <__alt_mem_instruction_tcm+0xff203220>
 120323c:	88c00015 	stw	r3,0(r17)
 1203240:	003ff706 	br	1203220 <__alt_mem_instruction_tcm+0xff203220>

01203244 <_close_r>:
 1203244:	defffd04 	addi	sp,sp,-12
 1203248:	dc000015 	stw	r16,0(sp)
 120324c:	040048b4 	movhi	r16,290
 1203250:	dc400115 	stw	r17,4(sp)
 1203254:	84087504 	addi	r16,r16,8660
 1203258:	2023883a 	mov	r17,r4
 120325c:	2809883a 	mov	r4,r5
 1203260:	dfc00215 	stw	ra,8(sp)
 1203264:	80000015 	stw	zero,0(r16)
 1203268:	12126ac0 	call	12126ac <close>
 120326c:	00ffffc4 	movi	r3,-1
 1203270:	10c00526 	beq	r2,r3,1203288 <_close_r+0x44>
 1203274:	dfc00217 	ldw	ra,8(sp)
 1203278:	dc400117 	ldw	r17,4(sp)
 120327c:	dc000017 	ldw	r16,0(sp)
 1203280:	dec00304 	addi	sp,sp,12
 1203284:	f800283a 	ret
 1203288:	80c00017 	ldw	r3,0(r16)
 120328c:	183ff926 	beq	r3,zero,1203274 <__alt_mem_instruction_tcm+0xff203274>
 1203290:	88c00015 	stw	r3,0(r17)
 1203294:	003ff706 	br	1203274 <__alt_mem_instruction_tcm+0xff203274>

01203298 <_fclose_r>:
 1203298:	28003226 	beq	r5,zero,1203364 <_fclose_r+0xcc>
 120329c:	defffc04 	addi	sp,sp,-16
 12032a0:	dc400115 	stw	r17,4(sp)
 12032a4:	2023883a 	mov	r17,r4
 12032a8:	dc000015 	stw	r16,0(sp)
 12032ac:	dfc00315 	stw	ra,12(sp)
 12032b0:	dc800215 	stw	r18,8(sp)
 12032b4:	2821883a 	mov	r16,r5
 12032b8:	12008380 	call	1200838 <__sfp_lock_acquire>
 12032bc:	88000226 	beq	r17,zero,12032c8 <_fclose_r+0x30>
 12032c0:	88800e17 	ldw	r2,56(r17)
 12032c4:	10002926 	beq	r2,zero,120336c <_fclose_r+0xd4>
 12032c8:	8080030f 	ldh	r2,12(r16)
 12032cc:	10002226 	beq	r2,zero,1203358 <_fclose_r+0xc0>
 12032d0:	8809883a 	mov	r4,r17
 12032d4:	800b883a 	mov	r5,r16
 12032d8:	12033ac0 	call	12033ac <_fflush_r>
 12032dc:	1025883a 	mov	r18,r2
 12032e0:	80800b17 	ldw	r2,44(r16)
 12032e4:	10000426 	beq	r2,zero,12032f8 <_fclose_r+0x60>
 12032e8:	81400717 	ldw	r5,28(r16)
 12032ec:	8809883a 	mov	r4,r17
 12032f0:	103ee83a 	callr	r2
 12032f4:	10002616 	blt	r2,zero,1203390 <_fclose_r+0xf8>
 12032f8:	8080030b 	ldhu	r2,12(r16)
 12032fc:	1080200c 	andi	r2,r2,128
 1203300:	10001f1e 	bne	r2,zero,1203380 <_fclose_r+0xe8>
 1203304:	81400c17 	ldw	r5,48(r16)
 1203308:	28000526 	beq	r5,zero,1203320 <_fclose_r+0x88>
 120330c:	80801004 	addi	r2,r16,64
 1203310:	28800226 	beq	r5,r2,120331c <_fclose_r+0x84>
 1203314:	8809883a 	mov	r4,r17
 1203318:	12037280 	call	1203728 <_free_r>
 120331c:	80000c15 	stw	zero,48(r16)
 1203320:	81401117 	ldw	r5,68(r16)
 1203324:	28000326 	beq	r5,zero,1203334 <_fclose_r+0x9c>
 1203328:	8809883a 	mov	r4,r17
 120332c:	12037280 	call	1203728 <_free_r>
 1203330:	80001115 	stw	zero,68(r16)
 1203334:	8000030d 	sth	zero,12(r16)
 1203338:	120083c0 	call	120083c <__sfp_lock_release>
 120333c:	9005883a 	mov	r2,r18
 1203340:	dfc00317 	ldw	ra,12(sp)
 1203344:	dc800217 	ldw	r18,8(sp)
 1203348:	dc400117 	ldw	r17,4(sp)
 120334c:	dc000017 	ldw	r16,0(sp)
 1203350:	dec00404 	addi	sp,sp,16
 1203354:	f800283a 	ret
 1203358:	120083c0 	call	120083c <__sfp_lock_release>
 120335c:	0005883a 	mov	r2,zero
 1203360:	003ff706 	br	1203340 <__alt_mem_instruction_tcm+0xff203340>
 1203364:	0005883a 	mov	r2,zero
 1203368:	f800283a 	ret
 120336c:	8809883a 	mov	r4,r17
 1203370:	12008280 	call	1200828 <__sinit>
 1203374:	8080030f 	ldh	r2,12(r16)
 1203378:	103fd51e 	bne	r2,zero,12032d0 <__alt_mem_instruction_tcm+0xff2032d0>
 120337c:	003ff606 	br	1203358 <__alt_mem_instruction_tcm+0xff203358>
 1203380:	81400417 	ldw	r5,16(r16)
 1203384:	8809883a 	mov	r4,r17
 1203388:	12037280 	call	1203728 <_free_r>
 120338c:	003fdd06 	br	1203304 <__alt_mem_instruction_tcm+0xff203304>
 1203390:	04bfffc4 	movi	r18,-1
 1203394:	003fd806 	br	12032f8 <__alt_mem_instruction_tcm+0xff2032f8>

01203398 <fclose>:
 1203398:	008048b4 	movhi	r2,290
 120339c:	10884104 	addi	r2,r2,8452
 12033a0:	200b883a 	mov	r5,r4
 12033a4:	11000017 	ldw	r4,0(r2)
 12033a8:	12032981 	jmpi	1203298 <_fclose_r>

012033ac <_fflush_r>:
 12033ac:	defffb04 	addi	sp,sp,-20
 12033b0:	dcc00315 	stw	r19,12(sp)
 12033b4:	dc000015 	stw	r16,0(sp)
 12033b8:	dfc00415 	stw	ra,16(sp)
 12033bc:	dc800215 	stw	r18,8(sp)
 12033c0:	dc400115 	stw	r17,4(sp)
 12033c4:	2027883a 	mov	r19,r4
 12033c8:	2821883a 	mov	r16,r5
 12033cc:	20000226 	beq	r4,zero,12033d8 <_fflush_r+0x2c>
 12033d0:	20800e17 	ldw	r2,56(r4)
 12033d4:	10005326 	beq	r2,zero,1203524 <_fflush_r+0x178>
 12033d8:	8080030b 	ldhu	r2,12(r16)
 12033dc:	10ffffcc 	andi	r3,r2,65535
 12033e0:	18e0001c 	xori	r3,r3,32768
 12033e4:	18e00004 	addi	r3,r3,-32768
 12033e8:	18002c26 	beq	r3,zero,120349c <_fflush_r+0xf0>
 12033ec:	10c0020c 	andi	r3,r2,8
 12033f0:	1800321e 	bne	r3,zero,12034bc <_fflush_r+0x110>
 12033f4:	80c00117 	ldw	r3,4(r16)
 12033f8:	10820014 	ori	r2,r2,2048
 12033fc:	8080030d 	sth	r2,12(r16)
 1203400:	00c0570e 	bge	zero,r3,1203560 <_fflush_r+0x1b4>
 1203404:	82000a17 	ldw	r8,40(r16)
 1203408:	40002426 	beq	r8,zero,120349c <_fflush_r+0xf0>
 120340c:	9c400017 	ldw	r17,0(r19)
 1203410:	10c4000c 	andi	r3,r2,4096
 1203414:	98000015 	stw	zero,0(r19)
 1203418:	18004626 	beq	r3,zero,1203534 <_fflush_r+0x188>
 120341c:	81801417 	ldw	r6,80(r16)
 1203420:	10c0010c 	andi	r3,r2,4
 1203424:	18000626 	beq	r3,zero,1203440 <_fflush_r+0x94>
 1203428:	80c00117 	ldw	r3,4(r16)
 120342c:	80800c17 	ldw	r2,48(r16)
 1203430:	30cdc83a 	sub	r6,r6,r3
 1203434:	10000226 	beq	r2,zero,1203440 <_fflush_r+0x94>
 1203438:	80800f17 	ldw	r2,60(r16)
 120343c:	308dc83a 	sub	r6,r6,r2
 1203440:	81400717 	ldw	r5,28(r16)
 1203444:	9809883a 	mov	r4,r19
 1203448:	000f883a 	mov	r7,zero
 120344c:	403ee83a 	callr	r8
 1203450:	00ffffc4 	movi	r3,-1
 1203454:	10c04526 	beq	r2,r3,120356c <_fflush_r+0x1c0>
 1203458:	80c0030b 	ldhu	r3,12(r16)
 120345c:	81000417 	ldw	r4,16(r16)
 1203460:	80000115 	stw	zero,4(r16)
 1203464:	197dffcc 	andi	r5,r3,63487
 1203468:	8140030d 	sth	r5,12(r16)
 120346c:	81000015 	stw	r4,0(r16)
 1203470:	18c4000c 	andi	r3,r3,4096
 1203474:	18000126 	beq	r3,zero,120347c <_fflush_r+0xd0>
 1203478:	80801415 	stw	r2,80(r16)
 120347c:	81400c17 	ldw	r5,48(r16)
 1203480:	9c400015 	stw	r17,0(r19)
 1203484:	28000526 	beq	r5,zero,120349c <_fflush_r+0xf0>
 1203488:	80801004 	addi	r2,r16,64
 120348c:	28800226 	beq	r5,r2,1203498 <_fflush_r+0xec>
 1203490:	9809883a 	mov	r4,r19
 1203494:	12037280 	call	1203728 <_free_r>
 1203498:	80000c15 	stw	zero,48(r16)
 120349c:	0005883a 	mov	r2,zero
 12034a0:	dfc00417 	ldw	ra,16(sp)
 12034a4:	dcc00317 	ldw	r19,12(sp)
 12034a8:	dc800217 	ldw	r18,8(sp)
 12034ac:	dc400117 	ldw	r17,4(sp)
 12034b0:	dc000017 	ldw	r16,0(sp)
 12034b4:	dec00504 	addi	sp,sp,20
 12034b8:	f800283a 	ret
 12034bc:	84800417 	ldw	r18,16(r16)
 12034c0:	903ff626 	beq	r18,zero,120349c <__alt_mem_instruction_tcm+0xff20349c>
 12034c4:	84400017 	ldw	r17,0(r16)
 12034c8:	108000cc 	andi	r2,r2,3
 12034cc:	84800015 	stw	r18,0(r16)
 12034d0:	8ca3c83a 	sub	r17,r17,r18
 12034d4:	10001526 	beq	r2,zero,120352c <_fflush_r+0x180>
 12034d8:	0005883a 	mov	r2,zero
 12034dc:	80800215 	stw	r2,8(r16)
 12034e0:	04400316 	blt	zero,r17,12034f0 <_fflush_r+0x144>
 12034e4:	003fed06 	br	120349c <__alt_mem_instruction_tcm+0xff20349c>
 12034e8:	90a5883a 	add	r18,r18,r2
 12034ec:	047feb0e 	bge	zero,r17,120349c <__alt_mem_instruction_tcm+0xff20349c>
 12034f0:	80800917 	ldw	r2,36(r16)
 12034f4:	81400717 	ldw	r5,28(r16)
 12034f8:	880f883a 	mov	r7,r17
 12034fc:	900d883a 	mov	r6,r18
 1203500:	9809883a 	mov	r4,r19
 1203504:	103ee83a 	callr	r2
 1203508:	88a3c83a 	sub	r17,r17,r2
 120350c:	00bff616 	blt	zero,r2,12034e8 <__alt_mem_instruction_tcm+0xff2034e8>
 1203510:	80c0030b 	ldhu	r3,12(r16)
 1203514:	00bfffc4 	movi	r2,-1
 1203518:	18c01014 	ori	r3,r3,64
 120351c:	80c0030d 	sth	r3,12(r16)
 1203520:	003fdf06 	br	12034a0 <__alt_mem_instruction_tcm+0xff2034a0>
 1203524:	12008280 	call	1200828 <__sinit>
 1203528:	003fab06 	br	12033d8 <__alt_mem_instruction_tcm+0xff2033d8>
 120352c:	80800517 	ldw	r2,20(r16)
 1203530:	003fea06 	br	12034dc <__alt_mem_instruction_tcm+0xff2034dc>
 1203534:	81400717 	ldw	r5,28(r16)
 1203538:	000d883a 	mov	r6,zero
 120353c:	9809883a 	mov	r4,r19
 1203540:	01c00044 	movi	r7,1
 1203544:	403ee83a 	callr	r8
 1203548:	100d883a 	mov	r6,r2
 120354c:	00bfffc4 	movi	r2,-1
 1203550:	30801326 	beq	r6,r2,12035a0 <_fflush_r+0x1f4>
 1203554:	8080030b 	ldhu	r2,12(r16)
 1203558:	82000a17 	ldw	r8,40(r16)
 120355c:	003fb006 	br	1203420 <__alt_mem_instruction_tcm+0xff203420>
 1203560:	80c00f17 	ldw	r3,60(r16)
 1203564:	00ffa716 	blt	zero,r3,1203404 <__alt_mem_instruction_tcm+0xff203404>
 1203568:	003fcc06 	br	120349c <__alt_mem_instruction_tcm+0xff20349c>
 120356c:	98c00017 	ldw	r3,0(r19)
 1203570:	183fb926 	beq	r3,zero,1203458 <__alt_mem_instruction_tcm+0xff203458>
 1203574:	01000744 	movi	r4,29
 1203578:	19000226 	beq	r3,r4,1203584 <_fflush_r+0x1d8>
 120357c:	01000584 	movi	r4,22
 1203580:	1900101e 	bne	r3,r4,12035c4 <_fflush_r+0x218>
 1203584:	8080030b 	ldhu	r2,12(r16)
 1203588:	80c00417 	ldw	r3,16(r16)
 120358c:	80000115 	stw	zero,4(r16)
 1203590:	10bdffcc 	andi	r2,r2,63487
 1203594:	8080030d 	sth	r2,12(r16)
 1203598:	80c00015 	stw	r3,0(r16)
 120359c:	003fb706 	br	120347c <__alt_mem_instruction_tcm+0xff20347c>
 12035a0:	98800017 	ldw	r2,0(r19)
 12035a4:	103feb26 	beq	r2,zero,1203554 <__alt_mem_instruction_tcm+0xff203554>
 12035a8:	00c00744 	movi	r3,29
 12035ac:	10c00226 	beq	r2,r3,12035b8 <_fflush_r+0x20c>
 12035b0:	00c00584 	movi	r3,22
 12035b4:	10ffd61e 	bne	r2,r3,1203510 <__alt_mem_instruction_tcm+0xff203510>
 12035b8:	9c400015 	stw	r17,0(r19)
 12035bc:	0005883a 	mov	r2,zero
 12035c0:	003fb706 	br	12034a0 <__alt_mem_instruction_tcm+0xff2034a0>
 12035c4:	80c0030b 	ldhu	r3,12(r16)
 12035c8:	18c01014 	ori	r3,r3,64
 12035cc:	80c0030d 	sth	r3,12(r16)
 12035d0:	003fb306 	br	12034a0 <__alt_mem_instruction_tcm+0xff2034a0>

012035d4 <fflush>:
 12035d4:	20000526 	beq	r4,zero,12035ec <fflush+0x18>
 12035d8:	008048b4 	movhi	r2,290
 12035dc:	10884104 	addi	r2,r2,8452
 12035e0:	200b883a 	mov	r5,r4
 12035e4:	11000017 	ldw	r4,0(r2)
 12035e8:	12033ac1 	jmpi	12033ac <_fflush_r>
 12035ec:	008048b4 	movhi	r2,290
 12035f0:	10884004 	addi	r2,r2,8448
 12035f4:	11000017 	ldw	r4,0(r2)
 12035f8:	01404834 	movhi	r5,288
 12035fc:	294ceb04 	addi	r5,r5,13228
 1203600:	12009301 	jmpi	1200930 <_fwalk_reent>

01203604 <_malloc_trim_r>:
 1203604:	defffb04 	addi	sp,sp,-20
 1203608:	dcc00315 	stw	r19,12(sp)
 120360c:	04c048b4 	movhi	r19,290
 1203610:	dc800215 	stw	r18,8(sp)
 1203614:	dc400115 	stw	r17,4(sp)
 1203618:	dc000015 	stw	r16,0(sp)
 120361c:	dfc00415 	stw	ra,16(sp)
 1203620:	2821883a 	mov	r16,r5
 1203624:	9cc25a04 	addi	r19,r19,2408
 1203628:	2025883a 	mov	r18,r4
 120362c:	12130540 	call	1213054 <__malloc_lock>
 1203630:	98800217 	ldw	r2,8(r19)
 1203634:	14400117 	ldw	r17,4(r2)
 1203638:	00bfff04 	movi	r2,-4
 120363c:	88a2703a 	and	r17,r17,r2
 1203640:	8c21c83a 	sub	r16,r17,r16
 1203644:	8403fbc4 	addi	r16,r16,4079
 1203648:	8020d33a 	srli	r16,r16,12
 120364c:	0083ffc4 	movi	r2,4095
 1203650:	843fffc4 	addi	r16,r16,-1
 1203654:	8020933a 	slli	r16,r16,12
 1203658:	1400060e 	bge	r2,r16,1203674 <_malloc_trim_r+0x70>
 120365c:	9009883a 	mov	r4,r18
 1203660:	000b883a 	mov	r5,zero
 1203664:	12017640 	call	1201764 <_sbrk_r>
 1203668:	98c00217 	ldw	r3,8(r19)
 120366c:	1c47883a 	add	r3,r3,r17
 1203670:	10c00a26 	beq	r2,r3,120369c <_malloc_trim_r+0x98>
 1203674:	9009883a 	mov	r4,r18
 1203678:	12131740 	call	1213174 <__malloc_unlock>
 120367c:	0005883a 	mov	r2,zero
 1203680:	dfc00417 	ldw	ra,16(sp)
 1203684:	dcc00317 	ldw	r19,12(sp)
 1203688:	dc800217 	ldw	r18,8(sp)
 120368c:	dc400117 	ldw	r17,4(sp)
 1203690:	dc000017 	ldw	r16,0(sp)
 1203694:	dec00504 	addi	sp,sp,20
 1203698:	f800283a 	ret
 120369c:	9009883a 	mov	r4,r18
 12036a0:	040bc83a 	sub	r5,zero,r16
 12036a4:	12017640 	call	1201764 <_sbrk_r>
 12036a8:	00ffffc4 	movi	r3,-1
 12036ac:	10c00d26 	beq	r2,r3,12036e4 <_malloc_trim_r+0xe0>
 12036b0:	00c048b4 	movhi	r3,290
 12036b4:	18c89804 	addi	r3,r3,8800
 12036b8:	18800017 	ldw	r2,0(r3)
 12036bc:	99000217 	ldw	r4,8(r19)
 12036c0:	8c23c83a 	sub	r17,r17,r16
 12036c4:	8c400054 	ori	r17,r17,1
 12036c8:	1421c83a 	sub	r16,r2,r16
 12036cc:	24400115 	stw	r17,4(r4)
 12036d0:	9009883a 	mov	r4,r18
 12036d4:	1c000015 	stw	r16,0(r3)
 12036d8:	12131740 	call	1213174 <__malloc_unlock>
 12036dc:	00800044 	movi	r2,1
 12036e0:	003fe706 	br	1203680 <__alt_mem_instruction_tcm+0xff203680>
 12036e4:	9009883a 	mov	r4,r18
 12036e8:	000b883a 	mov	r5,zero
 12036ec:	12017640 	call	1201764 <_sbrk_r>
 12036f0:	99000217 	ldw	r4,8(r19)
 12036f4:	014003c4 	movi	r5,15
 12036f8:	1107c83a 	sub	r3,r2,r4
 12036fc:	28ffdd0e 	bge	r5,r3,1203674 <__alt_mem_instruction_tcm+0xff203674>
 1203700:	014048b4 	movhi	r5,290
 1203704:	29484204 	addi	r5,r5,8456
 1203708:	29400017 	ldw	r5,0(r5)
 120370c:	18c00054 	ori	r3,r3,1
 1203710:	20c00115 	stw	r3,4(r4)
 1203714:	00c048b4 	movhi	r3,290
 1203718:	1145c83a 	sub	r2,r2,r5
 120371c:	18c89804 	addi	r3,r3,8800
 1203720:	18800015 	stw	r2,0(r3)
 1203724:	003fd306 	br	1203674 <__alt_mem_instruction_tcm+0xff203674>

01203728 <_free_r>:
 1203728:	28004c26 	beq	r5,zero,120385c <_free_r+0x134>
 120372c:	defffd04 	addi	sp,sp,-12
 1203730:	dc400115 	stw	r17,4(sp)
 1203734:	dc000015 	stw	r16,0(sp)
 1203738:	2023883a 	mov	r17,r4
 120373c:	2821883a 	mov	r16,r5
 1203740:	dfc00215 	stw	ra,8(sp)
 1203744:	12130540 	call	1213054 <__malloc_lock>
 1203748:	813fff17 	ldw	r4,-4(r16)
 120374c:	00bfff84 	movi	r2,-2
 1203750:	024048b4 	movhi	r9,290
 1203754:	81bffe04 	addi	r6,r16,-8
 1203758:	2084703a 	and	r2,r4,r2
 120375c:	4a425a04 	addi	r9,r9,2408
 1203760:	308b883a 	add	r5,r6,r2
 1203764:	2a000117 	ldw	r8,4(r5)
 1203768:	49c00217 	ldw	r7,8(r9)
 120376c:	00ffff04 	movi	r3,-4
 1203770:	40c6703a 	and	r3,r8,r3
 1203774:	39405326 	beq	r7,r5,12038c4 <_free_r+0x19c>
 1203778:	28c00115 	stw	r3,4(r5)
 120377c:	2100004c 	andi	r4,r4,1
 1203780:	2000091e 	bne	r4,zero,12037a8 <_free_r+0x80>
 1203784:	81fffe17 	ldw	r7,-8(r16)
 1203788:	4a000204 	addi	r8,r9,8
 120378c:	31cdc83a 	sub	r6,r6,r7
 1203790:	31000217 	ldw	r4,8(r6)
 1203794:	11c5883a 	add	r2,r2,r7
 1203798:	22006126 	beq	r4,r8,1203920 <_free_r+0x1f8>
 120379c:	31c00317 	ldw	r7,12(r6)
 12037a0:	21c00315 	stw	r7,12(r4)
 12037a4:	39000215 	stw	r4,8(r7)
 12037a8:	28c9883a 	add	r4,r5,r3
 12037ac:	21c00117 	ldw	r7,4(r4)
 12037b0:	39c0004c 	andi	r7,r7,1
 12037b4:	38000d1e 	bne	r7,zero,12037ec <_free_r+0xc4>
 12037b8:	29000217 	ldw	r4,8(r5)
 12037bc:	10c5883a 	add	r2,r2,r3
 12037c0:	00c048b4 	movhi	r3,290
 12037c4:	18c25c04 	addi	r3,r3,2416
 12037c8:	20c07526 	beq	r4,r3,12039a0 <_free_r+0x278>
 12037cc:	29c00317 	ldw	r7,12(r5)
 12037d0:	11400054 	ori	r5,r2,1
 12037d4:	3087883a 	add	r3,r6,r2
 12037d8:	21c00315 	stw	r7,12(r4)
 12037dc:	39000215 	stw	r4,8(r7)
 12037e0:	31400115 	stw	r5,4(r6)
 12037e4:	18800015 	stw	r2,0(r3)
 12037e8:	00000406 	br	12037fc <_free_r+0xd4>
 12037ec:	10c00054 	ori	r3,r2,1
 12037f0:	30c00115 	stw	r3,4(r6)
 12037f4:	3087883a 	add	r3,r6,r2
 12037f8:	18800015 	stw	r2,0(r3)
 12037fc:	00c07fc4 	movi	r3,511
 1203800:	18801736 	bltu	r3,r2,1203860 <_free_r+0x138>
 1203804:	1004d0fa 	srli	r2,r2,3
 1203808:	01400044 	movi	r5,1
 120380c:	49000117 	ldw	r4,4(r9)
 1203810:	1087883a 	add	r3,r2,r2
 1203814:	18c7883a 	add	r3,r3,r3
 1203818:	1005d0ba 	srai	r2,r2,2
 120381c:	18c7883a 	add	r3,r3,r3
 1203820:	1a47883a 	add	r3,r3,r9
 1203824:	19c00217 	ldw	r7,8(r3)
 1203828:	2884983a 	sll	r2,r5,r2
 120382c:	30c00315 	stw	r3,12(r6)
 1203830:	31c00215 	stw	r7,8(r6)
 1203834:	1104b03a 	or	r2,r2,r4
 1203838:	19800215 	stw	r6,8(r3)
 120383c:	48800115 	stw	r2,4(r9)
 1203840:	39800315 	stw	r6,12(r7)
 1203844:	8809883a 	mov	r4,r17
 1203848:	dfc00217 	ldw	ra,8(sp)
 120384c:	dc400117 	ldw	r17,4(sp)
 1203850:	dc000017 	ldw	r16,0(sp)
 1203854:	dec00304 	addi	sp,sp,12
 1203858:	12131741 	jmpi	1213174 <__malloc_unlock>
 120385c:	f800283a 	ret
 1203860:	1006d27a 	srli	r3,r2,9
 1203864:	01000104 	movi	r4,4
 1203868:	20c04036 	bltu	r4,r3,120396c <_free_r+0x244>
 120386c:	1006d1ba 	srli	r3,r2,6
 1203870:	19400e04 	addi	r5,r3,56
 1203874:	2947883a 	add	r3,r5,r5
 1203878:	18c7883a 	add	r3,r3,r3
 120387c:	18c7883a 	add	r3,r3,r3
 1203880:	1a49883a 	add	r4,r3,r9
 1203884:	20c00217 	ldw	r3,8(r4)
 1203888:	01c048b4 	movhi	r7,290
 120388c:	39c25a04 	addi	r7,r7,2408
 1203890:	19003b26 	beq	r3,r4,1203980 <_free_r+0x258>
 1203894:	01ffff04 	movi	r7,-4
 1203898:	19400117 	ldw	r5,4(r3)
 120389c:	29ca703a 	and	r5,r5,r7
 12038a0:	1140022e 	bgeu	r2,r5,12038ac <_free_r+0x184>
 12038a4:	18c00217 	ldw	r3,8(r3)
 12038a8:	20fffb1e 	bne	r4,r3,1203898 <__alt_mem_instruction_tcm+0xff203898>
 12038ac:	18800317 	ldw	r2,12(r3)
 12038b0:	30800315 	stw	r2,12(r6)
 12038b4:	30c00215 	stw	r3,8(r6)
 12038b8:	11800215 	stw	r6,8(r2)
 12038bc:	19800315 	stw	r6,12(r3)
 12038c0:	003fe006 	br	1203844 <__alt_mem_instruction_tcm+0xff203844>
 12038c4:	2100004c 	andi	r4,r4,1
 12038c8:	1885883a 	add	r2,r3,r2
 12038cc:	2000071e 	bne	r4,zero,12038ec <_free_r+0x1c4>
 12038d0:	817ffe17 	ldw	r5,-8(r16)
 12038d4:	314dc83a 	sub	r6,r6,r5
 12038d8:	30c00317 	ldw	r3,12(r6)
 12038dc:	31000217 	ldw	r4,8(r6)
 12038e0:	1145883a 	add	r2,r2,r5
 12038e4:	20c00315 	stw	r3,12(r4)
 12038e8:	19000215 	stw	r4,8(r3)
 12038ec:	10c00054 	ori	r3,r2,1
 12038f0:	30c00115 	stw	r3,4(r6)
 12038f4:	00c048b4 	movhi	r3,290
 12038f8:	18c84304 	addi	r3,r3,8460
 12038fc:	18c00017 	ldw	r3,0(r3)
 1203900:	49800215 	stw	r6,8(r9)
 1203904:	10ffcf36 	bltu	r2,r3,1203844 <__alt_mem_instruction_tcm+0xff203844>
 1203908:	008048b4 	movhi	r2,290
 120390c:	10887404 	addi	r2,r2,8656
 1203910:	11400017 	ldw	r5,0(r2)
 1203914:	8809883a 	mov	r4,r17
 1203918:	12036040 	call	1203604 <_malloc_trim_r>
 120391c:	003fc906 	br	1203844 <__alt_mem_instruction_tcm+0xff203844>
 1203920:	28c9883a 	add	r4,r5,r3
 1203924:	21000117 	ldw	r4,4(r4)
 1203928:	2100004c 	andi	r4,r4,1
 120392c:	20000a1e 	bne	r4,zero,1203958 <_free_r+0x230>
 1203930:	29000317 	ldw	r4,12(r5)
 1203934:	29400217 	ldw	r5,8(r5)
 1203938:	10c5883a 	add	r2,r2,r3
 120393c:	10c00054 	ori	r3,r2,1
 1203940:	29000315 	stw	r4,12(r5)
 1203944:	21400215 	stw	r5,8(r4)
 1203948:	30c00115 	stw	r3,4(r6)
 120394c:	308d883a 	add	r6,r6,r2
 1203950:	30800015 	stw	r2,0(r6)
 1203954:	003fbb06 	br	1203844 <__alt_mem_instruction_tcm+0xff203844>
 1203958:	10c00054 	ori	r3,r2,1
 120395c:	30c00115 	stw	r3,4(r6)
 1203960:	308d883a 	add	r6,r6,r2
 1203964:	30800015 	stw	r2,0(r6)
 1203968:	003fb606 	br	1203844 <__alt_mem_instruction_tcm+0xff203844>
 120396c:	01000504 	movi	r4,20
 1203970:	20c01436 	bltu	r4,r3,12039c4 <_free_r+0x29c>
 1203974:	194016c4 	addi	r5,r3,91
 1203978:	2947883a 	add	r3,r5,r5
 120397c:	003fbe06 	br	1203878 <__alt_mem_instruction_tcm+0xff203878>
 1203980:	280bd0ba 	srai	r5,r5,2
 1203984:	00800044 	movi	r2,1
 1203988:	39000117 	ldw	r4,4(r7)
 120398c:	114a983a 	sll	r5,r2,r5
 1203990:	1805883a 	mov	r2,r3
 1203994:	2908b03a 	or	r4,r5,r4
 1203998:	39000115 	stw	r4,4(r7)
 120399c:	003fc406 	br	12038b0 <__alt_mem_instruction_tcm+0xff2038b0>
 12039a0:	49800515 	stw	r6,20(r9)
 12039a4:	49800415 	stw	r6,16(r9)
 12039a8:	10c00054 	ori	r3,r2,1
 12039ac:	31000315 	stw	r4,12(r6)
 12039b0:	31000215 	stw	r4,8(r6)
 12039b4:	30c00115 	stw	r3,4(r6)
 12039b8:	308d883a 	add	r6,r6,r2
 12039bc:	30800015 	stw	r2,0(r6)
 12039c0:	003fa006 	br	1203844 <__alt_mem_instruction_tcm+0xff203844>
 12039c4:	01001504 	movi	r4,84
 12039c8:	20c00436 	bltu	r4,r3,12039dc <_free_r+0x2b4>
 12039cc:	1006d33a 	srli	r3,r2,12
 12039d0:	19401b84 	addi	r5,r3,110
 12039d4:	2947883a 	add	r3,r5,r5
 12039d8:	003fa706 	br	1203878 <__alt_mem_instruction_tcm+0xff203878>
 12039dc:	01005504 	movi	r4,340
 12039e0:	20c00436 	bltu	r4,r3,12039f4 <_free_r+0x2cc>
 12039e4:	1006d3fa 	srli	r3,r2,15
 12039e8:	19401dc4 	addi	r5,r3,119
 12039ec:	2947883a 	add	r3,r5,r5
 12039f0:	003fa106 	br	1203878 <__alt_mem_instruction_tcm+0xff203878>
 12039f4:	01015504 	movi	r4,1364
 12039f8:	20c00436 	bltu	r4,r3,1203a0c <_free_r+0x2e4>
 12039fc:	1006d4ba 	srli	r3,r2,18
 1203a00:	19401f04 	addi	r5,r3,124
 1203a04:	2947883a 	add	r3,r5,r5
 1203a08:	003f9b06 	br	1203878 <__alt_mem_instruction_tcm+0xff203878>
 1203a0c:	00c03f04 	movi	r3,252
 1203a10:	01401f84 	movi	r5,126
 1203a14:	003f9806 	br	1203878 <__alt_mem_instruction_tcm+0xff203878>

01203a18 <__sfvwrite_r>:
 1203a18:	30800217 	ldw	r2,8(r6)
 1203a1c:	10004526 	beq	r2,zero,1203b34 <__sfvwrite_r+0x11c>
 1203a20:	28c0030b 	ldhu	r3,12(r5)
 1203a24:	defff404 	addi	sp,sp,-48
 1203a28:	dd400715 	stw	r21,28(sp)
 1203a2c:	dcc00515 	stw	r19,20(sp)
 1203a30:	dc000215 	stw	r16,8(sp)
 1203a34:	dfc00b15 	stw	ra,44(sp)
 1203a38:	df000a15 	stw	fp,40(sp)
 1203a3c:	ddc00915 	stw	r23,36(sp)
 1203a40:	dd800815 	stw	r22,32(sp)
 1203a44:	dd000615 	stw	r20,24(sp)
 1203a48:	dc800415 	stw	r18,16(sp)
 1203a4c:	dc400315 	stw	r17,12(sp)
 1203a50:	1880020c 	andi	r2,r3,8
 1203a54:	2821883a 	mov	r16,r5
 1203a58:	202b883a 	mov	r21,r4
 1203a5c:	3027883a 	mov	r19,r6
 1203a60:	10002526 	beq	r2,zero,1203af8 <__sfvwrite_r+0xe0>
 1203a64:	28800417 	ldw	r2,16(r5)
 1203a68:	10002326 	beq	r2,zero,1203af8 <__sfvwrite_r+0xe0>
 1203a6c:	1880008c 	andi	r2,r3,2
 1203a70:	9c400017 	ldw	r17,0(r19)
 1203a74:	10003126 	beq	r2,zero,1203b3c <__sfvwrite_r+0x124>
 1203a78:	0029883a 	mov	r20,zero
 1203a7c:	0025883a 	mov	r18,zero
 1203a80:	05810004 	movi	r22,1024
 1203a84:	a00d883a 	mov	r6,r20
 1203a88:	a809883a 	mov	r4,r21
 1203a8c:	90002526 	beq	r18,zero,1203b24 <__sfvwrite_r+0x10c>
 1203a90:	900f883a 	mov	r7,r18
 1203a94:	81400717 	ldw	r5,28(r16)
 1203a98:	b480012e 	bgeu	r22,r18,1203aa0 <__sfvwrite_r+0x88>
 1203a9c:	01c10004 	movi	r7,1024
 1203aa0:	80800917 	ldw	r2,36(r16)
 1203aa4:	103ee83a 	callr	r2
 1203aa8:	0080510e 	bge	zero,r2,1203bf0 <__sfvwrite_r+0x1d8>
 1203aac:	98c00217 	ldw	r3,8(r19)
 1203ab0:	a0a9883a 	add	r20,r20,r2
 1203ab4:	90a5c83a 	sub	r18,r18,r2
 1203ab8:	1885c83a 	sub	r2,r3,r2
 1203abc:	98800215 	stw	r2,8(r19)
 1203ac0:	103ff01e 	bne	r2,zero,1203a84 <__alt_mem_instruction_tcm+0xff203a84>
 1203ac4:	0005883a 	mov	r2,zero
 1203ac8:	dfc00b17 	ldw	ra,44(sp)
 1203acc:	df000a17 	ldw	fp,40(sp)
 1203ad0:	ddc00917 	ldw	r23,36(sp)
 1203ad4:	dd800817 	ldw	r22,32(sp)
 1203ad8:	dd400717 	ldw	r21,28(sp)
 1203adc:	dd000617 	ldw	r20,24(sp)
 1203ae0:	dcc00517 	ldw	r19,20(sp)
 1203ae4:	dc800417 	ldw	r18,16(sp)
 1203ae8:	dc400317 	ldw	r17,12(sp)
 1203aec:	dc000217 	ldw	r16,8(sp)
 1203af0:	dec00c04 	addi	sp,sp,48
 1203af4:	f800283a 	ret
 1203af8:	a809883a 	mov	r4,r21
 1203afc:	800b883a 	mov	r5,r16
 1203b00:	120a5180 	call	120a518 <__swsetup_r>
 1203b04:	80c0030b 	ldhu	r3,12(r16)
 1203b08:	103fd826 	beq	r2,zero,1203a6c <__alt_mem_instruction_tcm+0xff203a6c>
 1203b0c:	18c01014 	ori	r3,r3,64
 1203b10:	80c0030d 	sth	r3,12(r16)
 1203b14:	00c00244 	movi	r3,9
 1203b18:	00bfffc4 	movi	r2,-1
 1203b1c:	a8c00015 	stw	r3,0(r21)
 1203b20:	003fe906 	br	1203ac8 <__alt_mem_instruction_tcm+0xff203ac8>
 1203b24:	8d000017 	ldw	r20,0(r17)
 1203b28:	8c800117 	ldw	r18,4(r17)
 1203b2c:	8c400204 	addi	r17,r17,8
 1203b30:	003fd406 	br	1203a84 <__alt_mem_instruction_tcm+0xff203a84>
 1203b34:	0005883a 	mov	r2,zero
 1203b38:	f800283a 	ret
 1203b3c:	1880004c 	andi	r2,r3,1
 1203b40:	1000301e 	bne	r2,zero,1203c04 <__sfvwrite_r+0x1ec>
 1203b44:	002f883a 	mov	r23,zero
 1203b48:	0025883a 	mov	r18,zero
 1203b4c:	90001c26 	beq	r18,zero,1203bc0 <__sfvwrite_r+0x1a8>
 1203b50:	1880800c 	andi	r2,r3,512
 1203b54:	85000217 	ldw	r20,8(r16)
 1203b58:	10006c26 	beq	r2,zero,1203d0c <__sfvwrite_r+0x2f4>
 1203b5c:	a02d883a 	mov	r22,r20
 1203b60:	95008536 	bltu	r18,r20,1203d78 <__sfvwrite_r+0x360>
 1203b64:	1881200c 	andi	r2,r3,1152
 1203b68:	10009d1e 	bne	r2,zero,1203de0 <__sfvwrite_r+0x3c8>
 1203b6c:	81000017 	ldw	r4,0(r16)
 1203b70:	a039883a 	mov	fp,r20
 1203b74:	9029883a 	mov	r20,r18
 1203b78:	b80b883a 	mov	r5,r23
 1203b7c:	b00d883a 	mov	r6,r22
 1203b80:	120441c0 	call	120441c <memmove>
 1203b84:	80c00217 	ldw	r3,8(r16)
 1203b88:	81000017 	ldw	r4,0(r16)
 1203b8c:	9005883a 	mov	r2,r18
 1203b90:	1f39c83a 	sub	fp,r3,fp
 1203b94:	258f883a 	add	r7,r4,r22
 1203b98:	87000215 	stw	fp,8(r16)
 1203b9c:	81c00015 	stw	r7,0(r16)
 1203ba0:	98c00217 	ldw	r3,8(r19)
 1203ba4:	b8af883a 	add	r23,r23,r2
 1203ba8:	90a5c83a 	sub	r18,r18,r2
 1203bac:	1d05c83a 	sub	r2,r3,r20
 1203bb0:	98800215 	stw	r2,8(r19)
 1203bb4:	103fc326 	beq	r2,zero,1203ac4 <__alt_mem_instruction_tcm+0xff203ac4>
 1203bb8:	80c0030b 	ldhu	r3,12(r16)
 1203bbc:	903fe41e 	bne	r18,zero,1203b50 <__alt_mem_instruction_tcm+0xff203b50>
 1203bc0:	8dc00017 	ldw	r23,0(r17)
 1203bc4:	8c800117 	ldw	r18,4(r17)
 1203bc8:	8c400204 	addi	r17,r17,8
 1203bcc:	003fdf06 	br	1203b4c <__alt_mem_instruction_tcm+0xff203b4c>
 1203bd0:	12045d40 	call	12045d4 <_realloc_r>
 1203bd4:	102d883a 	mov	r22,r2
 1203bd8:	1000a01e 	bne	r2,zero,1203e5c <__sfvwrite_r+0x444>
 1203bdc:	81400417 	ldw	r5,16(r16)
 1203be0:	a809883a 	mov	r4,r21
 1203be4:	12037280 	call	1203728 <_free_r>
 1203be8:	00800304 	movi	r2,12
 1203bec:	a8800015 	stw	r2,0(r21)
 1203bf0:	80c0030b 	ldhu	r3,12(r16)
 1203bf4:	00bfffc4 	movi	r2,-1
 1203bf8:	18c01014 	ori	r3,r3,64
 1203bfc:	80c0030d 	sth	r3,12(r16)
 1203c00:	003fb106 	br	1203ac8 <__alt_mem_instruction_tcm+0xff203ac8>
 1203c04:	0029883a 	mov	r20,zero
 1203c08:	0011883a 	mov	r8,zero
 1203c0c:	0039883a 	mov	fp,zero
 1203c10:	0025883a 	mov	r18,zero
 1203c14:	90001f26 	beq	r18,zero,1203c94 <__sfvwrite_r+0x27c>
 1203c18:	40006826 	beq	r8,zero,1203dbc <__sfvwrite_r+0x3a4>
 1203c1c:	a02f883a 	mov	r23,r20
 1203c20:	9500012e 	bgeu	r18,r20,1203c28 <__sfvwrite_r+0x210>
 1203c24:	902f883a 	mov	r23,r18
 1203c28:	81000017 	ldw	r4,0(r16)
 1203c2c:	80800417 	ldw	r2,16(r16)
 1203c30:	b82d883a 	mov	r22,r23
 1203c34:	81800217 	ldw	r6,8(r16)
 1203c38:	81c00517 	ldw	r7,20(r16)
 1203c3c:	1100022e 	bgeu	r2,r4,1203c48 <__sfvwrite_r+0x230>
 1203c40:	31c7883a 	add	r3,r6,r7
 1203c44:	1dc01816 	blt	r3,r23,1203ca8 <__sfvwrite_r+0x290>
 1203c48:	b9c03f16 	blt	r23,r7,1203d48 <__sfvwrite_r+0x330>
 1203c4c:	80800917 	ldw	r2,36(r16)
 1203c50:	81400717 	ldw	r5,28(r16)
 1203c54:	a809883a 	mov	r4,r21
 1203c58:	da000115 	stw	r8,4(sp)
 1203c5c:	e00d883a 	mov	r6,fp
 1203c60:	103ee83a 	callr	r2
 1203c64:	102d883a 	mov	r22,r2
 1203c68:	da000117 	ldw	r8,4(sp)
 1203c6c:	00bfe00e 	bge	zero,r2,1203bf0 <__alt_mem_instruction_tcm+0xff203bf0>
 1203c70:	a5a9c83a 	sub	r20,r20,r22
 1203c74:	a0001f26 	beq	r20,zero,1203cf4 <__sfvwrite_r+0x2dc>
 1203c78:	98800217 	ldw	r2,8(r19)
 1203c7c:	e5b9883a 	add	fp,fp,r22
 1203c80:	95a5c83a 	sub	r18,r18,r22
 1203c84:	15adc83a 	sub	r22,r2,r22
 1203c88:	9d800215 	stw	r22,8(r19)
 1203c8c:	b03f8d26 	beq	r22,zero,1203ac4 <__alt_mem_instruction_tcm+0xff203ac4>
 1203c90:	903fe11e 	bne	r18,zero,1203c18 <__alt_mem_instruction_tcm+0xff203c18>
 1203c94:	8f000017 	ldw	fp,0(r17)
 1203c98:	8c800117 	ldw	r18,4(r17)
 1203c9c:	0011883a 	mov	r8,zero
 1203ca0:	8c400204 	addi	r17,r17,8
 1203ca4:	003fdb06 	br	1203c14 <__alt_mem_instruction_tcm+0xff203c14>
 1203ca8:	180d883a 	mov	r6,r3
 1203cac:	e00b883a 	mov	r5,fp
 1203cb0:	da000115 	stw	r8,4(sp)
 1203cb4:	d8c00015 	stw	r3,0(sp)
 1203cb8:	120441c0 	call	120441c <memmove>
 1203cbc:	d8c00017 	ldw	r3,0(sp)
 1203cc0:	80800017 	ldw	r2,0(r16)
 1203cc4:	a809883a 	mov	r4,r21
 1203cc8:	800b883a 	mov	r5,r16
 1203ccc:	10c5883a 	add	r2,r2,r3
 1203cd0:	80800015 	stw	r2,0(r16)
 1203cd4:	d8c00015 	stw	r3,0(sp)
 1203cd8:	12033ac0 	call	12033ac <_fflush_r>
 1203cdc:	d8c00017 	ldw	r3,0(sp)
 1203ce0:	da000117 	ldw	r8,4(sp)
 1203ce4:	103fc21e 	bne	r2,zero,1203bf0 <__alt_mem_instruction_tcm+0xff203bf0>
 1203ce8:	182d883a 	mov	r22,r3
 1203cec:	a5a9c83a 	sub	r20,r20,r22
 1203cf0:	a03fe11e 	bne	r20,zero,1203c78 <__alt_mem_instruction_tcm+0xff203c78>
 1203cf4:	a809883a 	mov	r4,r21
 1203cf8:	800b883a 	mov	r5,r16
 1203cfc:	12033ac0 	call	12033ac <_fflush_r>
 1203d00:	103fbb1e 	bne	r2,zero,1203bf0 <__alt_mem_instruction_tcm+0xff203bf0>
 1203d04:	0011883a 	mov	r8,zero
 1203d08:	003fdb06 	br	1203c78 <__alt_mem_instruction_tcm+0xff203c78>
 1203d0c:	81000017 	ldw	r4,0(r16)
 1203d10:	80800417 	ldw	r2,16(r16)
 1203d14:	1100012e 	bgeu	r2,r4,1203d1c <__sfvwrite_r+0x304>
 1203d18:	a4805a36 	bltu	r20,r18,1203e84 <__sfvwrite_r+0x46c>
 1203d1c:	81c00517 	ldw	r7,20(r16)
 1203d20:	91c01a36 	bltu	r18,r7,1203d8c <__sfvwrite_r+0x374>
 1203d24:	80800917 	ldw	r2,36(r16)
 1203d28:	81400717 	ldw	r5,28(r16)
 1203d2c:	a809883a 	mov	r4,r21
 1203d30:	b80d883a 	mov	r6,r23
 1203d34:	103ee83a 	callr	r2
 1203d38:	1029883a 	mov	r20,r2
 1203d3c:	00bfac0e 	bge	zero,r2,1203bf0 <__alt_mem_instruction_tcm+0xff203bf0>
 1203d40:	a005883a 	mov	r2,r20
 1203d44:	003f9606 	br	1203ba0 <__alt_mem_instruction_tcm+0xff203ba0>
 1203d48:	b80d883a 	mov	r6,r23
 1203d4c:	e00b883a 	mov	r5,fp
 1203d50:	da000115 	stw	r8,4(sp)
 1203d54:	120441c0 	call	120441c <memmove>
 1203d58:	80800217 	ldw	r2,8(r16)
 1203d5c:	80c00017 	ldw	r3,0(r16)
 1203d60:	da000117 	ldw	r8,4(sp)
 1203d64:	15c5c83a 	sub	r2,r2,r23
 1203d68:	1def883a 	add	r23,r3,r23
 1203d6c:	80800215 	stw	r2,8(r16)
 1203d70:	85c00015 	stw	r23,0(r16)
 1203d74:	003fbe06 	br	1203c70 <__alt_mem_instruction_tcm+0xff203c70>
 1203d78:	81000017 	ldw	r4,0(r16)
 1203d7c:	9039883a 	mov	fp,r18
 1203d80:	9029883a 	mov	r20,r18
 1203d84:	902d883a 	mov	r22,r18
 1203d88:	003f7b06 	br	1203b78 <__alt_mem_instruction_tcm+0xff203b78>
 1203d8c:	b80b883a 	mov	r5,r23
 1203d90:	900d883a 	mov	r6,r18
 1203d94:	120441c0 	call	120441c <memmove>
 1203d98:	80c00217 	ldw	r3,8(r16)
 1203d9c:	80800017 	ldw	r2,0(r16)
 1203da0:	9029883a 	mov	r20,r18
 1203da4:	1c87c83a 	sub	r3,r3,r18
 1203da8:	1485883a 	add	r2,r2,r18
 1203dac:	80800015 	stw	r2,0(r16)
 1203db0:	80c00215 	stw	r3,8(r16)
 1203db4:	9005883a 	mov	r2,r18
 1203db8:	003f7906 	br	1203ba0 <__alt_mem_instruction_tcm+0xff203ba0>
 1203dbc:	e009883a 	mov	r4,fp
 1203dc0:	01400284 	movi	r5,10
 1203dc4:	900d883a 	mov	r6,r18
 1203dc8:	12011900 	call	1201190 <memchr>
 1203dcc:	10003826 	beq	r2,zero,1203eb0 <__sfvwrite_r+0x498>
 1203dd0:	10800044 	addi	r2,r2,1
 1203dd4:	1729c83a 	sub	r20,r2,fp
 1203dd8:	02000044 	movi	r8,1
 1203ddc:	003f8f06 	br	1203c1c <__alt_mem_instruction_tcm+0xff203c1c>
 1203de0:	80800517 	ldw	r2,20(r16)
 1203de4:	81400417 	ldw	r5,16(r16)
 1203de8:	87000017 	ldw	fp,0(r16)
 1203dec:	10a9883a 	add	r20,r2,r2
 1203df0:	a085883a 	add	r2,r20,r2
 1203df4:	1028d7fa 	srli	r20,r2,31
 1203df8:	e179c83a 	sub	fp,fp,r5
 1203dfc:	e1000044 	addi	r4,fp,1
 1203e00:	a085883a 	add	r2,r20,r2
 1203e04:	1029d07a 	srai	r20,r2,1
 1203e08:	2485883a 	add	r2,r4,r18
 1203e0c:	a00d883a 	mov	r6,r20
 1203e10:	a080022e 	bgeu	r20,r2,1203e1c <__sfvwrite_r+0x404>
 1203e14:	1029883a 	mov	r20,r2
 1203e18:	100d883a 	mov	r6,r2
 1203e1c:	18c1000c 	andi	r3,r3,1024
 1203e20:	a809883a 	mov	r4,r21
 1203e24:	183f6a26 	beq	r3,zero,1203bd0 <__alt_mem_instruction_tcm+0xff203bd0>
 1203e28:	300b883a 	mov	r5,r6
 1203e2c:	12009e80 	call	12009e8 <_malloc_r>
 1203e30:	102d883a 	mov	r22,r2
 1203e34:	103f6c26 	beq	r2,zero,1203be8 <__alt_mem_instruction_tcm+0xff203be8>
 1203e38:	81400417 	ldw	r5,16(r16)
 1203e3c:	1009883a 	mov	r4,r2
 1203e40:	e00d883a 	mov	r6,fp
 1203e44:	12012780 	call	1201278 <memcpy>
 1203e48:	8080030b 	ldhu	r2,12(r16)
 1203e4c:	00fedfc4 	movi	r3,-1153
 1203e50:	10c4703a 	and	r2,r2,r3
 1203e54:	10802014 	ori	r2,r2,128
 1203e58:	8080030d 	sth	r2,12(r16)
 1203e5c:	b709883a 	add	r4,r22,fp
 1203e60:	a707c83a 	sub	r3,r20,fp
 1203e64:	85800415 	stw	r22,16(r16)
 1203e68:	85000515 	stw	r20,20(r16)
 1203e6c:	81000015 	stw	r4,0(r16)
 1203e70:	9039883a 	mov	fp,r18
 1203e74:	80c00215 	stw	r3,8(r16)
 1203e78:	9029883a 	mov	r20,r18
 1203e7c:	902d883a 	mov	r22,r18
 1203e80:	003f3d06 	br	1203b78 <__alt_mem_instruction_tcm+0xff203b78>
 1203e84:	b80b883a 	mov	r5,r23
 1203e88:	a00d883a 	mov	r6,r20
 1203e8c:	120441c0 	call	120441c <memmove>
 1203e90:	80800017 	ldw	r2,0(r16)
 1203e94:	a809883a 	mov	r4,r21
 1203e98:	800b883a 	mov	r5,r16
 1203e9c:	1505883a 	add	r2,r2,r20
 1203ea0:	80800015 	stw	r2,0(r16)
 1203ea4:	12033ac0 	call	12033ac <_fflush_r>
 1203ea8:	103fa526 	beq	r2,zero,1203d40 <__alt_mem_instruction_tcm+0xff203d40>
 1203eac:	003f5006 	br	1203bf0 <__alt_mem_instruction_tcm+0xff203bf0>
 1203eb0:	95000044 	addi	r20,r18,1
 1203eb4:	02000044 	movi	r8,1
 1203eb8:	003f5806 	br	1203c1c <__alt_mem_instruction_tcm+0xff203c1c>

01203ebc <iswspace>:
 1203ebc:	00803fc4 	movi	r2,255
 1203ec0:	11000836 	bltu	r2,r4,1203ee4 <iswspace+0x28>
 1203ec4:	008048b4 	movhi	r2,290
 1203ec8:	10884404 	addi	r2,r2,8464
 1203ecc:	10800017 	ldw	r2,0(r2)
 1203ed0:	1109883a 	add	r4,r2,r4
 1203ed4:	20800043 	ldbu	r2,1(r4)
 1203ed8:	1080020c 	andi	r2,r2,8
 1203edc:	10803fcc 	andi	r2,r2,255
 1203ee0:	f800283a 	ret
 1203ee4:	0005883a 	mov	r2,zero
 1203ee8:	f800283a 	ret

01203eec <_setlocale_r>:
 1203eec:	30001b26 	beq	r6,zero,1203f5c <_setlocale_r+0x70>
 1203ef0:	014048b4 	movhi	r5,290
 1203ef4:	defffe04 	addi	sp,sp,-8
 1203ef8:	29402904 	addi	r5,r5,164
 1203efc:	3009883a 	mov	r4,r6
 1203f00:	dc000015 	stw	r16,0(sp)
 1203f04:	dfc00115 	stw	ra,4(sp)
 1203f08:	3021883a 	mov	r16,r6
 1203f0c:	1204d740 	call	1204d74 <strcmp>
 1203f10:	1000061e 	bne	r2,zero,1203f2c <_setlocale_r+0x40>
 1203f14:	008048b4 	movhi	r2,290
 1203f18:	10bf7c04 	addi	r2,r2,-528
 1203f1c:	dfc00117 	ldw	ra,4(sp)
 1203f20:	dc000017 	ldw	r16,0(sp)
 1203f24:	dec00204 	addi	sp,sp,8
 1203f28:	f800283a 	ret
 1203f2c:	014048b4 	movhi	r5,290
 1203f30:	297f7c04 	addi	r5,r5,-528
 1203f34:	8009883a 	mov	r4,r16
 1203f38:	1204d740 	call	1204d74 <strcmp>
 1203f3c:	103ff526 	beq	r2,zero,1203f14 <__alt_mem_instruction_tcm+0xff203f14>
 1203f40:	014048b4 	movhi	r5,290
 1203f44:	29404b04 	addi	r5,r5,300
 1203f48:	8009883a 	mov	r4,r16
 1203f4c:	1204d740 	call	1204d74 <strcmp>
 1203f50:	103ff026 	beq	r2,zero,1203f14 <__alt_mem_instruction_tcm+0xff203f14>
 1203f54:	0005883a 	mov	r2,zero
 1203f58:	003ff006 	br	1203f1c <__alt_mem_instruction_tcm+0xff203f1c>
 1203f5c:	008048b4 	movhi	r2,290
 1203f60:	10bf7c04 	addi	r2,r2,-528
 1203f64:	f800283a 	ret

01203f68 <__locale_charset>:
 1203f68:	008048b4 	movhi	r2,290
 1203f6c:	10836404 	addi	r2,r2,3472
 1203f70:	f800283a 	ret

01203f74 <__locale_mb_cur_max>:
 1203f74:	008048b4 	movhi	r2,290
 1203f78:	10884504 	addi	r2,r2,8468
 1203f7c:	10800017 	ldw	r2,0(r2)
 1203f80:	f800283a 	ret

01203f84 <__locale_msgcharset>:
 1203f84:	008048b4 	movhi	r2,290
 1203f88:	10835c04 	addi	r2,r2,3440
 1203f8c:	f800283a 	ret

01203f90 <__locale_cjk_lang>:
 1203f90:	0005883a 	mov	r2,zero
 1203f94:	f800283a 	ret

01203f98 <_localeconv_r>:
 1203f98:	008048b4 	movhi	r2,290
 1203f9c:	10836c04 	addi	r2,r2,3504
 1203fa0:	f800283a 	ret

01203fa4 <setlocale>:
 1203fa4:	00c048b4 	movhi	r3,290
 1203fa8:	18c84104 	addi	r3,r3,8452
 1203fac:	2005883a 	mov	r2,r4
 1203fb0:	19000017 	ldw	r4,0(r3)
 1203fb4:	280d883a 	mov	r6,r5
 1203fb8:	100b883a 	mov	r5,r2
 1203fbc:	1203eec1 	jmpi	1203eec <_setlocale_r>

01203fc0 <localeconv>:
 1203fc0:	008048b4 	movhi	r2,290
 1203fc4:	10836c04 	addi	r2,r2,3504
 1203fc8:	f800283a 	ret

01203fcc <_lseek_r>:
 1203fcc:	defffd04 	addi	sp,sp,-12
 1203fd0:	dc000015 	stw	r16,0(sp)
 1203fd4:	040048b4 	movhi	r16,290
 1203fd8:	dc400115 	stw	r17,4(sp)
 1203fdc:	84087504 	addi	r16,r16,8660
 1203fe0:	2023883a 	mov	r17,r4
 1203fe4:	2809883a 	mov	r4,r5
 1203fe8:	300b883a 	mov	r5,r6
 1203fec:	380d883a 	mov	r6,r7
 1203ff0:	dfc00215 	stw	ra,8(sp)
 1203ff4:	80000015 	stw	zero,0(r16)
 1203ff8:	12129ec0 	call	12129ec <lseek>
 1203ffc:	00ffffc4 	movi	r3,-1
 1204000:	10c00526 	beq	r2,r3,1204018 <_lseek_r+0x4c>
 1204004:	dfc00217 	ldw	ra,8(sp)
 1204008:	dc400117 	ldw	r17,4(sp)
 120400c:	dc000017 	ldw	r16,0(sp)
 1204010:	dec00304 	addi	sp,sp,12
 1204014:	f800283a 	ret
 1204018:	80c00017 	ldw	r3,0(r16)
 120401c:	183ff926 	beq	r3,zero,1204004 <__alt_mem_instruction_tcm+0xff204004>
 1204020:	88c00015 	stw	r3,0(r17)
 1204024:	003ff706 	br	1204004 <__alt_mem_instruction_tcm+0xff204004>

01204028 <__smakebuf_r>:
 1204028:	2880030b 	ldhu	r2,12(r5)
 120402c:	10c0008c 	andi	r3,r2,2
 1204030:	1800401e 	bne	r3,zero,1204134 <__smakebuf_r+0x10c>
 1204034:	deffec04 	addi	sp,sp,-80
 1204038:	dc000f15 	stw	r16,60(sp)
 120403c:	2821883a 	mov	r16,r5
 1204040:	2940038f 	ldh	r5,14(r5)
 1204044:	dc401015 	stw	r17,64(sp)
 1204048:	dfc01315 	stw	ra,76(sp)
 120404c:	dcc01215 	stw	r19,72(sp)
 1204050:	dc801115 	stw	r18,68(sp)
 1204054:	2023883a 	mov	r17,r4
 1204058:	28001b16 	blt	r5,zero,12040c8 <__smakebuf_r+0xa0>
 120405c:	d80d883a 	mov	r6,sp
 1204060:	120bf700 	call	120bf70 <_fstat_r>
 1204064:	10001716 	blt	r2,zero,12040c4 <__smakebuf_r+0x9c>
 1204068:	d8800117 	ldw	r2,4(sp)
 120406c:	00e00014 	movui	r3,32768
 1204070:	10bc000c 	andi	r2,r2,61440
 1204074:	10c03726 	beq	r2,r3,1204154 <__smakebuf_r+0x12c>
 1204078:	80c0030b 	ldhu	r3,12(r16)
 120407c:	18c20014 	ori	r3,r3,2048
 1204080:	80c0030d 	sth	r3,12(r16)
 1204084:	00c80004 	movi	r3,8192
 1204088:	10c03c1e 	bne	r2,r3,120417c <__smakebuf_r+0x154>
 120408c:	8140038f 	ldh	r5,14(r16)
 1204090:	8809883a 	mov	r4,r17
 1204094:	120cbfc0 	call	120cbfc <_isatty_r>
 1204098:	10004e26 	beq	r2,zero,12041d4 <__smakebuf_r+0x1ac>
 120409c:	8080030b 	ldhu	r2,12(r16)
 12040a0:	04c00044 	movi	r19,1
 12040a4:	80c010c4 	addi	r3,r16,67
 12040a8:	14c4b03a 	or	r2,r2,r19
 12040ac:	8080030d 	sth	r2,12(r16)
 12040b0:	80c00015 	stw	r3,0(r16)
 12040b4:	80c00415 	stw	r3,16(r16)
 12040b8:	84c00515 	stw	r19,20(r16)
 12040bc:	04810004 	movi	r18,1024
 12040c0:	00000706 	br	12040e0 <__smakebuf_r+0xb8>
 12040c4:	8080030b 	ldhu	r2,12(r16)
 12040c8:	10c0200c 	andi	r3,r2,128
 12040cc:	18001f1e 	bne	r3,zero,120414c <__smakebuf_r+0x124>
 12040d0:	04810004 	movi	r18,1024
 12040d4:	10820014 	ori	r2,r2,2048
 12040d8:	8080030d 	sth	r2,12(r16)
 12040dc:	0027883a 	mov	r19,zero
 12040e0:	8809883a 	mov	r4,r17
 12040e4:	900b883a 	mov	r5,r18
 12040e8:	12009e80 	call	12009e8 <_malloc_r>
 12040ec:	10002e26 	beq	r2,zero,12041a8 <__smakebuf_r+0x180>
 12040f0:	80c0030b 	ldhu	r3,12(r16)
 12040f4:	01004834 	movhi	r4,288
 12040f8:	21013a04 	addi	r4,r4,1256
 12040fc:	89000f15 	stw	r4,60(r17)
 1204100:	18c02014 	ori	r3,r3,128
 1204104:	80c0030d 	sth	r3,12(r16)
 1204108:	80800015 	stw	r2,0(r16)
 120410c:	80800415 	stw	r2,16(r16)
 1204110:	84800515 	stw	r18,20(r16)
 1204114:	98001c1e 	bne	r19,zero,1204188 <__smakebuf_r+0x160>
 1204118:	dfc01317 	ldw	ra,76(sp)
 120411c:	dcc01217 	ldw	r19,72(sp)
 1204120:	dc801117 	ldw	r18,68(sp)
 1204124:	dc401017 	ldw	r17,64(sp)
 1204128:	dc000f17 	ldw	r16,60(sp)
 120412c:	dec01404 	addi	sp,sp,80
 1204130:	f800283a 	ret
 1204134:	288010c4 	addi	r2,r5,67
 1204138:	28800015 	stw	r2,0(r5)
 120413c:	28800415 	stw	r2,16(r5)
 1204140:	00800044 	movi	r2,1
 1204144:	28800515 	stw	r2,20(r5)
 1204148:	f800283a 	ret
 120414c:	04801004 	movi	r18,64
 1204150:	003fe006 	br	12040d4 <__alt_mem_instruction_tcm+0xff2040d4>
 1204154:	81000a17 	ldw	r4,40(r16)
 1204158:	00c04834 	movhi	r3,288
 120415c:	18c66104 	addi	r3,r3,6532
 1204160:	20ffc51e 	bne	r4,r3,1204078 <__alt_mem_instruction_tcm+0xff204078>
 1204164:	80c0030b 	ldhu	r3,12(r16)
 1204168:	01010004 	movi	r4,1024
 120416c:	81001315 	stw	r4,76(r16)
 1204170:	1906b03a 	or	r3,r3,r4
 1204174:	80c0030d 	sth	r3,12(r16)
 1204178:	003fc206 	br	1204084 <__alt_mem_instruction_tcm+0xff204084>
 120417c:	0027883a 	mov	r19,zero
 1204180:	04810004 	movi	r18,1024
 1204184:	003fd606 	br	12040e0 <__alt_mem_instruction_tcm+0xff2040e0>
 1204188:	8140038f 	ldh	r5,14(r16)
 120418c:	8809883a 	mov	r4,r17
 1204190:	120cbfc0 	call	120cbfc <_isatty_r>
 1204194:	103fe026 	beq	r2,zero,1204118 <__alt_mem_instruction_tcm+0xff204118>
 1204198:	8080030b 	ldhu	r2,12(r16)
 120419c:	10800054 	ori	r2,r2,1
 12041a0:	8080030d 	sth	r2,12(r16)
 12041a4:	003fdc06 	br	1204118 <__alt_mem_instruction_tcm+0xff204118>
 12041a8:	8080030b 	ldhu	r2,12(r16)
 12041ac:	10c0800c 	andi	r3,r2,512
 12041b0:	183fd91e 	bne	r3,zero,1204118 <__alt_mem_instruction_tcm+0xff204118>
 12041b4:	10800094 	ori	r2,r2,2
 12041b8:	80c010c4 	addi	r3,r16,67
 12041bc:	8080030d 	sth	r2,12(r16)
 12041c0:	00800044 	movi	r2,1
 12041c4:	80c00015 	stw	r3,0(r16)
 12041c8:	80c00415 	stw	r3,16(r16)
 12041cc:	80800515 	stw	r2,20(r16)
 12041d0:	003fd106 	br	1204118 <__alt_mem_instruction_tcm+0xff204118>
 12041d4:	04c00044 	movi	r19,1
 12041d8:	04810004 	movi	r18,1024
 12041dc:	003fc006 	br	12040e0 <__alt_mem_instruction_tcm+0xff2040e0>

012041e0 <_mbrtowc_r>:
 12041e0:	defff704 	addi	sp,sp,-36
 12041e4:	008048b4 	movhi	r2,290
 12041e8:	dc800715 	stw	r18,28(sp)
 12041ec:	dc400615 	stw	r17,24(sp)
 12041f0:	dc000515 	stw	r16,20(sp)
 12041f4:	10884604 	addi	r2,r2,8472
 12041f8:	dfc00815 	stw	ra,32(sp)
 12041fc:	2021883a 	mov	r16,r4
 1204200:	dc400917 	ldw	r17,36(sp)
 1204204:	14800017 	ldw	r18,0(r2)
 1204208:	30001626 	beq	r6,zero,1204264 <_mbrtowc_r+0x84>
 120420c:	d9400215 	stw	r5,8(sp)
 1204210:	d9800315 	stw	r6,12(sp)
 1204214:	d9c00415 	stw	r7,16(sp)
 1204218:	1203f680 	call	1203f68 <__locale_charset>
 120421c:	d9400217 	ldw	r5,8(sp)
 1204220:	d9800317 	ldw	r6,12(sp)
 1204224:	d9c00417 	ldw	r7,16(sp)
 1204228:	d8800015 	stw	r2,0(sp)
 120422c:	dc400115 	stw	r17,4(sp)
 1204230:	8009883a 	mov	r4,r16
 1204234:	903ee83a 	callr	r18
 1204238:	00ffffc4 	movi	r3,-1
 120423c:	10c0031e 	bne	r2,r3,120424c <_mbrtowc_r+0x6c>
 1204240:	88000015 	stw	zero,0(r17)
 1204244:	00c02284 	movi	r3,138
 1204248:	80c00015 	stw	r3,0(r16)
 120424c:	dfc00817 	ldw	ra,32(sp)
 1204250:	dc800717 	ldw	r18,28(sp)
 1204254:	dc400617 	ldw	r17,24(sp)
 1204258:	dc000517 	ldw	r16,20(sp)
 120425c:	dec00904 	addi	sp,sp,36
 1204260:	f800283a 	ret
 1204264:	1203f680 	call	1203f68 <__locale_charset>
 1204268:	018048b4 	movhi	r6,290
 120426c:	31804b04 	addi	r6,r6,300
 1204270:	d8800015 	stw	r2,0(sp)
 1204274:	dc400115 	stw	r17,4(sp)
 1204278:	8009883a 	mov	r4,r16
 120427c:	000b883a 	mov	r5,zero
 1204280:	01c00044 	movi	r7,1
 1204284:	903ee83a 	callr	r18
 1204288:	003feb06 	br	1204238 <__alt_mem_instruction_tcm+0xff204238>

0120428c <mbrtowc>:
 120428c:	defff604 	addi	sp,sp,-40
 1204290:	dc400315 	stw	r17,12(sp)
 1204294:	dc000215 	stw	r16,8(sp)
 1204298:	dfc00915 	stw	ra,36(sp)
 120429c:	dd800815 	stw	r22,32(sp)
 12042a0:	dd400715 	stw	r21,28(sp)
 12042a4:	dd000615 	stw	r20,24(sp)
 12042a8:	dcc00515 	stw	r19,20(sp)
 12042ac:	dc800415 	stw	r18,16(sp)
 12042b0:	2821883a 	mov	r16,r5
 12042b4:	3823883a 	mov	r17,r7
 12042b8:	28002026 	beq	r5,zero,120433c <mbrtowc+0xb0>
 12042bc:	048048b4 	movhi	r18,290
 12042c0:	94884104 	addi	r18,r18,8452
 12042c4:	008048b4 	movhi	r2,290
 12042c8:	95800017 	ldw	r22,0(r18)
 12042cc:	10884604 	addi	r2,r2,8472
 12042d0:	15400017 	ldw	r21,0(r2)
 12042d4:	2029883a 	mov	r20,r4
 12042d8:	3027883a 	mov	r19,r6
 12042dc:	1203f680 	call	1203f68 <__locale_charset>
 12042e0:	d8800015 	stw	r2,0(sp)
 12042e4:	dc400115 	stw	r17,4(sp)
 12042e8:	b009883a 	mov	r4,r22
 12042ec:	a00b883a 	mov	r5,r20
 12042f0:	800d883a 	mov	r6,r16
 12042f4:	980f883a 	mov	r7,r19
 12042f8:	a83ee83a 	callr	r21
 12042fc:	00ffffc4 	movi	r3,-1
 1204300:	10c0041e 	bne	r2,r3,1204314 <mbrtowc+0x88>
 1204304:	90c00017 	ldw	r3,0(r18)
 1204308:	01002284 	movi	r4,138
 120430c:	88000015 	stw	zero,0(r17)
 1204310:	19000015 	stw	r4,0(r3)
 1204314:	dfc00917 	ldw	ra,36(sp)
 1204318:	dd800817 	ldw	r22,32(sp)
 120431c:	dd400717 	ldw	r21,28(sp)
 1204320:	dd000617 	ldw	r20,24(sp)
 1204324:	dcc00517 	ldw	r19,20(sp)
 1204328:	dc800417 	ldw	r18,16(sp)
 120432c:	dc400317 	ldw	r17,12(sp)
 1204330:	dc000217 	ldw	r16,8(sp)
 1204334:	dec00a04 	addi	sp,sp,40
 1204338:	f800283a 	ret
 120433c:	048048b4 	movhi	r18,290
 1204340:	94884104 	addi	r18,r18,8452
 1204344:	008048b4 	movhi	r2,290
 1204348:	94c00017 	ldw	r19,0(r18)
 120434c:	10884604 	addi	r2,r2,8472
 1204350:	14000017 	ldw	r16,0(r2)
 1204354:	1203f680 	call	1203f68 <__locale_charset>
 1204358:	018048b4 	movhi	r6,290
 120435c:	31804b04 	addi	r6,r6,300
 1204360:	d8800015 	stw	r2,0(sp)
 1204364:	dc400115 	stw	r17,4(sp)
 1204368:	9809883a 	mov	r4,r19
 120436c:	000b883a 	mov	r5,zero
 1204370:	01c00044 	movi	r7,1
 1204374:	803ee83a 	callr	r16
 1204378:	003fe006 	br	12042fc <__alt_mem_instruction_tcm+0xff2042fc>

0120437c <__ascii_mbtowc>:
 120437c:	deffff04 	addi	sp,sp,-4
 1204380:	28000826 	beq	r5,zero,12043a4 <__ascii_mbtowc+0x28>
 1204384:	30000926 	beq	r6,zero,12043ac <__ascii_mbtowc+0x30>
 1204388:	38000b26 	beq	r7,zero,12043b8 <__ascii_mbtowc+0x3c>
 120438c:	30800003 	ldbu	r2,0(r6)
 1204390:	28800015 	stw	r2,0(r5)
 1204394:	30800003 	ldbu	r2,0(r6)
 1204398:	1004c03a 	cmpne	r2,r2,zero
 120439c:	dec00104 	addi	sp,sp,4
 12043a0:	f800283a 	ret
 12043a4:	d80b883a 	mov	r5,sp
 12043a8:	303ff71e 	bne	r6,zero,1204388 <__alt_mem_instruction_tcm+0xff204388>
 12043ac:	0005883a 	mov	r2,zero
 12043b0:	dec00104 	addi	sp,sp,4
 12043b4:	f800283a 	ret
 12043b8:	00bfff84 	movi	r2,-2
 12043bc:	003ff706 	br	120439c <__alt_mem_instruction_tcm+0xff20439c>

012043c0 <_mbtowc_r>:
 12043c0:	008048b4 	movhi	r2,290
 12043c4:	defff804 	addi	sp,sp,-32
 12043c8:	10884604 	addi	r2,r2,8472
 12043cc:	dfc00715 	stw	ra,28(sp)
 12043d0:	dc000615 	stw	r16,24(sp)
 12043d4:	14000017 	ldw	r16,0(r2)
 12043d8:	d9000215 	stw	r4,8(sp)
 12043dc:	d9400315 	stw	r5,12(sp)
 12043e0:	d9800415 	stw	r6,16(sp)
 12043e4:	d9c00515 	stw	r7,20(sp)
 12043e8:	1203f680 	call	1203f68 <__locale_charset>
 12043ec:	d8800015 	stw	r2,0(sp)
 12043f0:	d8800817 	ldw	r2,32(sp)
 12043f4:	d9000217 	ldw	r4,8(sp)
 12043f8:	d9400317 	ldw	r5,12(sp)
 12043fc:	d9800417 	ldw	r6,16(sp)
 1204400:	d9c00517 	ldw	r7,20(sp)
 1204404:	d8800115 	stw	r2,4(sp)
 1204408:	803ee83a 	callr	r16
 120440c:	dfc00717 	ldw	ra,28(sp)
 1204410:	dc000617 	ldw	r16,24(sp)
 1204414:	dec00804 	addi	sp,sp,32
 1204418:	f800283a 	ret

0120441c <memmove>:
 120441c:	2005883a 	mov	r2,r4
 1204420:	29000b2e 	bgeu	r5,r4,1204450 <memmove+0x34>
 1204424:	298f883a 	add	r7,r5,r6
 1204428:	21c0092e 	bgeu	r4,r7,1204450 <memmove+0x34>
 120442c:	2187883a 	add	r3,r4,r6
 1204430:	198bc83a 	sub	r5,r3,r6
 1204434:	30004b26 	beq	r6,zero,1204564 <memmove+0x148>
 1204438:	39ffffc4 	addi	r7,r7,-1
 120443c:	39000003 	ldbu	r4,0(r7)
 1204440:	18ffffc4 	addi	r3,r3,-1
 1204444:	19000005 	stb	r4,0(r3)
 1204448:	197ffb1e 	bne	r3,r5,1204438 <__alt_mem_instruction_tcm+0xff204438>
 120444c:	f800283a 	ret
 1204450:	00c003c4 	movi	r3,15
 1204454:	1980412e 	bgeu	r3,r6,120455c <memmove+0x140>
 1204458:	1146b03a 	or	r3,r2,r5
 120445c:	18c000cc 	andi	r3,r3,3
 1204460:	1800411e 	bne	r3,zero,1204568 <memmove+0x14c>
 1204464:	33fffc04 	addi	r15,r6,-16
 1204468:	781ed13a 	srli	r15,r15,4
 120446c:	28c00104 	addi	r3,r5,4
 1204470:	13400104 	addi	r13,r2,4
 1204474:	781c913a 	slli	r14,r15,4
 1204478:	2b000204 	addi	r12,r5,8
 120447c:	12c00204 	addi	r11,r2,8
 1204480:	73800504 	addi	r14,r14,20
 1204484:	2a800304 	addi	r10,r5,12
 1204488:	12400304 	addi	r9,r2,12
 120448c:	2b9d883a 	add	r14,r5,r14
 1204490:	2811883a 	mov	r8,r5
 1204494:	100f883a 	mov	r7,r2
 1204498:	41000017 	ldw	r4,0(r8)
 120449c:	39c00404 	addi	r7,r7,16
 12044a0:	18c00404 	addi	r3,r3,16
 12044a4:	393ffc15 	stw	r4,-16(r7)
 12044a8:	193ffc17 	ldw	r4,-16(r3)
 12044ac:	6b400404 	addi	r13,r13,16
 12044b0:	5ac00404 	addi	r11,r11,16
 12044b4:	693ffc15 	stw	r4,-16(r13)
 12044b8:	61000017 	ldw	r4,0(r12)
 12044bc:	4a400404 	addi	r9,r9,16
 12044c0:	42000404 	addi	r8,r8,16
 12044c4:	593ffc15 	stw	r4,-16(r11)
 12044c8:	51000017 	ldw	r4,0(r10)
 12044cc:	63000404 	addi	r12,r12,16
 12044d0:	52800404 	addi	r10,r10,16
 12044d4:	493ffc15 	stw	r4,-16(r9)
 12044d8:	1bbfef1e 	bne	r3,r14,1204498 <__alt_mem_instruction_tcm+0xff204498>
 12044dc:	79000044 	addi	r4,r15,1
 12044e0:	2008913a 	slli	r4,r4,4
 12044e4:	328003cc 	andi	r10,r6,15
 12044e8:	02c000c4 	movi	r11,3
 12044ec:	1107883a 	add	r3,r2,r4
 12044f0:	290b883a 	add	r5,r5,r4
 12044f4:	5a801e2e 	bgeu	r11,r10,1204570 <memmove+0x154>
 12044f8:	1813883a 	mov	r9,r3
 12044fc:	2811883a 	mov	r8,r5
 1204500:	500f883a 	mov	r7,r10
 1204504:	41000017 	ldw	r4,0(r8)
 1204508:	4a400104 	addi	r9,r9,4
 120450c:	39ffff04 	addi	r7,r7,-4
 1204510:	493fff15 	stw	r4,-4(r9)
 1204514:	42000104 	addi	r8,r8,4
 1204518:	59fffa36 	bltu	r11,r7,1204504 <__alt_mem_instruction_tcm+0xff204504>
 120451c:	513fff04 	addi	r4,r10,-4
 1204520:	2008d0ba 	srli	r4,r4,2
 1204524:	318000cc 	andi	r6,r6,3
 1204528:	21000044 	addi	r4,r4,1
 120452c:	2109883a 	add	r4,r4,r4
 1204530:	2109883a 	add	r4,r4,r4
 1204534:	1907883a 	add	r3,r3,r4
 1204538:	290b883a 	add	r5,r5,r4
 120453c:	30000926 	beq	r6,zero,1204564 <memmove+0x148>
 1204540:	198d883a 	add	r6,r3,r6
 1204544:	29c00003 	ldbu	r7,0(r5)
 1204548:	18c00044 	addi	r3,r3,1
 120454c:	29400044 	addi	r5,r5,1
 1204550:	19ffffc5 	stb	r7,-1(r3)
 1204554:	19bffb1e 	bne	r3,r6,1204544 <__alt_mem_instruction_tcm+0xff204544>
 1204558:	f800283a 	ret
 120455c:	1007883a 	mov	r3,r2
 1204560:	003ff606 	br	120453c <__alt_mem_instruction_tcm+0xff20453c>
 1204564:	f800283a 	ret
 1204568:	1007883a 	mov	r3,r2
 120456c:	003ff406 	br	1204540 <__alt_mem_instruction_tcm+0xff204540>
 1204570:	500d883a 	mov	r6,r10
 1204574:	003ff106 	br	120453c <__alt_mem_instruction_tcm+0xff20453c>

01204578 <_read_r>:
 1204578:	defffd04 	addi	sp,sp,-12
 120457c:	dc000015 	stw	r16,0(sp)
 1204580:	040048b4 	movhi	r16,290
 1204584:	dc400115 	stw	r17,4(sp)
 1204588:	84087504 	addi	r16,r16,8660
 120458c:	2023883a 	mov	r17,r4
 1204590:	2809883a 	mov	r4,r5
 1204594:	300b883a 	mov	r5,r6
 1204598:	380d883a 	mov	r6,r7
 120459c:	dfc00215 	stw	ra,8(sp)
 12045a0:	80000015 	stw	zero,0(r16)
 12045a4:	1212be40 	call	1212be4 <read>
 12045a8:	00ffffc4 	movi	r3,-1
 12045ac:	10c00526 	beq	r2,r3,12045c4 <_read_r+0x4c>
 12045b0:	dfc00217 	ldw	ra,8(sp)
 12045b4:	dc400117 	ldw	r17,4(sp)
 12045b8:	dc000017 	ldw	r16,0(sp)
 12045bc:	dec00304 	addi	sp,sp,12
 12045c0:	f800283a 	ret
 12045c4:	80c00017 	ldw	r3,0(r16)
 12045c8:	183ff926 	beq	r3,zero,12045b0 <__alt_mem_instruction_tcm+0xff2045b0>
 12045cc:	88c00015 	stw	r3,0(r17)
 12045d0:	003ff706 	br	12045b0 <__alt_mem_instruction_tcm+0xff2045b0>

012045d4 <_realloc_r>:
 12045d4:	defff604 	addi	sp,sp,-40
 12045d8:	dcc00315 	stw	r19,12(sp)
 12045dc:	dc400115 	stw	r17,4(sp)
 12045e0:	dfc00915 	stw	ra,36(sp)
 12045e4:	df000815 	stw	fp,32(sp)
 12045e8:	ddc00715 	stw	r23,28(sp)
 12045ec:	dd800615 	stw	r22,24(sp)
 12045f0:	dd400515 	stw	r21,20(sp)
 12045f4:	dd000415 	stw	r20,16(sp)
 12045f8:	dc800215 	stw	r18,8(sp)
 12045fc:	dc000015 	stw	r16,0(sp)
 1204600:	2827883a 	mov	r19,r5
 1204604:	3023883a 	mov	r17,r6
 1204608:	2800bf26 	beq	r5,zero,1204908 <_realloc_r+0x334>
 120460c:	2025883a 	mov	r18,r4
 1204610:	12130540 	call	1213054 <__malloc_lock>
 1204614:	98ffff17 	ldw	r3,-4(r19)
 1204618:	01bfff04 	movi	r6,-4
 120461c:	890002c4 	addi	r4,r17,11
 1204620:	01c00584 	movi	r7,22
 1204624:	9d7ffe04 	addi	r21,r19,-8
 1204628:	19a0703a 	and	r16,r3,r6
 120462c:	39003f2e 	bgeu	r7,r4,120472c <_realloc_r+0x158>
 1204630:	053ffe04 	movi	r20,-8
 1204634:	2528703a 	and	r20,r4,r20
 1204638:	a00f883a 	mov	r7,r20
 120463c:	a0008216 	blt	r20,zero,1204848 <_realloc_r+0x274>
 1204640:	a4408136 	bltu	r20,r17,1204848 <_realloc_r+0x274>
 1204644:	81c03c0e 	bge	r16,r7,1204738 <_realloc_r+0x164>
 1204648:	070048b4 	movhi	fp,290
 120464c:	e7025a04 	addi	fp,fp,2408
 1204650:	e1000217 	ldw	r4,8(fp)
 1204654:	ac05883a 	add	r2,r21,r16
 1204658:	2080bf26 	beq	r4,r2,1204958 <_realloc_r+0x384>
 120465c:	11000117 	ldw	r4,4(r2)
 1204660:	023fff84 	movi	r8,-2
 1204664:	2210703a 	and	r8,r4,r8
 1204668:	1211883a 	add	r8,r2,r8
 120466c:	41400117 	ldw	r5,4(r8)
 1204670:	2940004c 	andi	r5,r5,1
 1204674:	28004a1e 	bne	r5,zero,12047a0 <_realloc_r+0x1cc>
 1204678:	017fff04 	movi	r5,-4
 120467c:	2148703a 	and	r4,r4,r5
 1204680:	2409883a 	add	r4,r4,r16
 1204684:	21c0ad0e 	bge	r4,r7,120493c <_realloc_r+0x368>
 1204688:	18c0004c 	andi	r3,r3,1
 120468c:	18007f1e 	bne	r3,zero,120488c <_realloc_r+0x2b8>
 1204690:	9dfffe17 	ldw	r23,-8(r19)
 1204694:	adefc83a 	sub	r23,r21,r23
 1204698:	bd800117 	ldw	r22,4(r23)
 120469c:	b14a703a 	and	r5,r22,r5
 12046a0:	216d883a 	add	r22,r4,r5
 12046a4:	b1c04516 	blt	r22,r7,12047bc <_realloc_r+0x1e8>
 12046a8:	10c00317 	ldw	r3,12(r2)
 12046ac:	10800217 	ldw	r2,8(r2)
 12046b0:	81bfff04 	addi	r6,r16,-4
 12046b4:	bc400204 	addi	r17,r23,8
 12046b8:	10c00315 	stw	r3,12(r2)
 12046bc:	18800215 	stw	r2,8(r3)
 12046c0:	b9400217 	ldw	r5,8(r23)
 12046c4:	b8c00317 	ldw	r3,12(r23)
 12046c8:	00800904 	movi	r2,36
 12046cc:	28c00315 	stw	r3,12(r5)
 12046d0:	19400215 	stw	r5,8(r3)
 12046d4:	1180ef36 	bltu	r2,r6,1204a94 <_realloc_r+0x4c0>
 12046d8:	008004c4 	movi	r2,19
 12046dc:	1180da2e 	bgeu	r2,r6,1204a48 <_realloc_r+0x474>
 12046e0:	98800017 	ldw	r2,0(r19)
 12046e4:	b8800215 	stw	r2,8(r23)
 12046e8:	98800117 	ldw	r2,4(r19)
 12046ec:	b8800315 	stw	r2,12(r23)
 12046f0:	008006c4 	movi	r2,27
 12046f4:	1180fc2e 	bgeu	r2,r6,1204ae8 <_realloc_r+0x514>
 12046f8:	98800217 	ldw	r2,8(r19)
 12046fc:	b8800415 	stw	r2,16(r23)
 1204700:	98800317 	ldw	r2,12(r19)
 1204704:	b8800515 	stw	r2,20(r23)
 1204708:	00800904 	movi	r2,36
 120470c:	3080421e 	bne	r6,r2,1204818 <_realloc_r+0x244>
 1204710:	98800417 	ldw	r2,16(r19)
 1204714:	9cc00604 	addi	r19,r19,24
 1204718:	b8c00804 	addi	r3,r23,32
 120471c:	b8800615 	stw	r2,24(r23)
 1204720:	98bfff17 	ldw	r2,-4(r19)
 1204724:	b8800715 	stw	r2,28(r23)
 1204728:	00003d06 	br	1204820 <_realloc_r+0x24c>
 120472c:	01c00404 	movi	r7,16
 1204730:	3829883a 	mov	r20,r7
 1204734:	003fc206 	br	1204640 <__alt_mem_instruction_tcm+0xff204640>
 1204738:	9823883a 	mov	r17,r19
 120473c:	850fc83a 	sub	r7,r16,r20
 1204740:	008003c4 	movi	r2,15
 1204744:	18c0004c 	andi	r3,r3,1
 1204748:	11c04336 	bltu	r2,r7,1204858 <_realloc_r+0x284>
 120474c:	1c06b03a 	or	r3,r3,r16
 1204750:	a8c00115 	stw	r3,4(r21)
 1204754:	ac21883a 	add	r16,r21,r16
 1204758:	80c00117 	ldw	r3,4(r16)
 120475c:	18c00054 	ori	r3,r3,1
 1204760:	80c00115 	stw	r3,4(r16)
 1204764:	9009883a 	mov	r4,r18
 1204768:	12131740 	call	1213174 <__malloc_unlock>
 120476c:	8805883a 	mov	r2,r17
 1204770:	dfc00917 	ldw	ra,36(sp)
 1204774:	df000817 	ldw	fp,32(sp)
 1204778:	ddc00717 	ldw	r23,28(sp)
 120477c:	dd800617 	ldw	r22,24(sp)
 1204780:	dd400517 	ldw	r21,20(sp)
 1204784:	dd000417 	ldw	r20,16(sp)
 1204788:	dcc00317 	ldw	r19,12(sp)
 120478c:	dc800217 	ldw	r18,8(sp)
 1204790:	dc400117 	ldw	r17,4(sp)
 1204794:	dc000017 	ldw	r16,0(sp)
 1204798:	dec00a04 	addi	sp,sp,40
 120479c:	f800283a 	ret
 12047a0:	18c0004c 	andi	r3,r3,1
 12047a4:	1800391e 	bne	r3,zero,120488c <_realloc_r+0x2b8>
 12047a8:	9dfffe17 	ldw	r23,-8(r19)
 12047ac:	00bfff04 	movi	r2,-4
 12047b0:	adefc83a 	sub	r23,r21,r23
 12047b4:	b9400117 	ldw	r5,4(r23)
 12047b8:	288a703a 	and	r5,r5,r2
 12047bc:	2c2d883a 	add	r22,r5,r16
 12047c0:	b1c03216 	blt	r22,r7,120488c <_realloc_r+0x2b8>
 12047c4:	b8800317 	ldw	r2,12(r23)
 12047c8:	b8c00217 	ldw	r3,8(r23)
 12047cc:	81bfff04 	addi	r6,r16,-4
 12047d0:	01000904 	movi	r4,36
 12047d4:	18800315 	stw	r2,12(r3)
 12047d8:	10c00215 	stw	r3,8(r2)
 12047dc:	bc400204 	addi	r17,r23,8
 12047e0:	2180ac36 	bltu	r4,r6,1204a94 <_realloc_r+0x4c0>
 12047e4:	008004c4 	movi	r2,19
 12047e8:	1180972e 	bgeu	r2,r6,1204a48 <_realloc_r+0x474>
 12047ec:	98800017 	ldw	r2,0(r19)
 12047f0:	b8800215 	stw	r2,8(r23)
 12047f4:	98800117 	ldw	r2,4(r19)
 12047f8:	b8800315 	stw	r2,12(r23)
 12047fc:	008006c4 	movi	r2,27
 1204800:	1180b92e 	bgeu	r2,r6,1204ae8 <_realloc_r+0x514>
 1204804:	98800217 	ldw	r2,8(r19)
 1204808:	b8800415 	stw	r2,16(r23)
 120480c:	98800317 	ldw	r2,12(r19)
 1204810:	b8800515 	stw	r2,20(r23)
 1204814:	313fbe26 	beq	r6,r4,1204710 <__alt_mem_instruction_tcm+0xff204710>
 1204818:	b8c00604 	addi	r3,r23,24
 120481c:	9cc00404 	addi	r19,r19,16
 1204820:	98800017 	ldw	r2,0(r19)
 1204824:	b021883a 	mov	r16,r22
 1204828:	b82b883a 	mov	r21,r23
 120482c:	18800015 	stw	r2,0(r3)
 1204830:	98800117 	ldw	r2,4(r19)
 1204834:	18800115 	stw	r2,4(r3)
 1204838:	98800217 	ldw	r2,8(r19)
 120483c:	18800215 	stw	r2,8(r3)
 1204840:	b8c00117 	ldw	r3,4(r23)
 1204844:	003fbd06 	br	120473c <__alt_mem_instruction_tcm+0xff20473c>
 1204848:	00800304 	movi	r2,12
 120484c:	90800015 	stw	r2,0(r18)
 1204850:	0005883a 	mov	r2,zero
 1204854:	003fc606 	br	1204770 <__alt_mem_instruction_tcm+0xff204770>
 1204858:	1d06b03a 	or	r3,r3,r20
 120485c:	ad0b883a 	add	r5,r21,r20
 1204860:	a8c00115 	stw	r3,4(r21)
 1204864:	38800054 	ori	r2,r7,1
 1204868:	28800115 	stw	r2,4(r5)
 120486c:	29cf883a 	add	r7,r5,r7
 1204870:	38800117 	ldw	r2,4(r7)
 1204874:	9009883a 	mov	r4,r18
 1204878:	29400204 	addi	r5,r5,8
 120487c:	10800054 	ori	r2,r2,1
 1204880:	38800115 	stw	r2,4(r7)
 1204884:	12037280 	call	1203728 <_free_r>
 1204888:	003fb606 	br	1204764 <__alt_mem_instruction_tcm+0xff204764>
 120488c:	880b883a 	mov	r5,r17
 1204890:	9009883a 	mov	r4,r18
 1204894:	12009e80 	call	12009e8 <_malloc_r>
 1204898:	1023883a 	mov	r17,r2
 120489c:	1000aa26 	beq	r2,zero,1204b48 <_realloc_r+0x574>
 12048a0:	98ffff17 	ldw	r3,-4(r19)
 12048a4:	113ffe04 	addi	r4,r2,-8
 12048a8:	00bfff84 	movi	r2,-2
 12048ac:	1884703a 	and	r2,r3,r2
 12048b0:	a885883a 	add	r2,r21,r2
 12048b4:	20808626 	beq	r4,r2,1204ad0 <_realloc_r+0x4fc>
 12048b8:	81bfff04 	addi	r6,r16,-4
 12048bc:	00800904 	movi	r2,36
 12048c0:	11807036 	bltu	r2,r6,1204a84 <_realloc_r+0x4b0>
 12048c4:	00c004c4 	movi	r3,19
 12048c8:	19805636 	bltu	r3,r6,1204a24 <_realloc_r+0x450>
 12048cc:	8805883a 	mov	r2,r17
 12048d0:	9807883a 	mov	r3,r19
 12048d4:	19000017 	ldw	r4,0(r3)
 12048d8:	11000015 	stw	r4,0(r2)
 12048dc:	19000117 	ldw	r4,4(r3)
 12048e0:	11000115 	stw	r4,4(r2)
 12048e4:	18c00217 	ldw	r3,8(r3)
 12048e8:	10c00215 	stw	r3,8(r2)
 12048ec:	980b883a 	mov	r5,r19
 12048f0:	9009883a 	mov	r4,r18
 12048f4:	12037280 	call	1203728 <_free_r>
 12048f8:	9009883a 	mov	r4,r18
 12048fc:	12131740 	call	1213174 <__malloc_unlock>
 1204900:	8805883a 	mov	r2,r17
 1204904:	003f9a06 	br	1204770 <__alt_mem_instruction_tcm+0xff204770>
 1204908:	300b883a 	mov	r5,r6
 120490c:	dfc00917 	ldw	ra,36(sp)
 1204910:	df000817 	ldw	fp,32(sp)
 1204914:	ddc00717 	ldw	r23,28(sp)
 1204918:	dd800617 	ldw	r22,24(sp)
 120491c:	dd400517 	ldw	r21,20(sp)
 1204920:	dd000417 	ldw	r20,16(sp)
 1204924:	dcc00317 	ldw	r19,12(sp)
 1204928:	dc800217 	ldw	r18,8(sp)
 120492c:	dc400117 	ldw	r17,4(sp)
 1204930:	dc000017 	ldw	r16,0(sp)
 1204934:	dec00a04 	addi	sp,sp,40
 1204938:	12009e81 	jmpi	12009e8 <_malloc_r>
 120493c:	11400317 	ldw	r5,12(r2)
 1204940:	10800217 	ldw	r2,8(r2)
 1204944:	9823883a 	mov	r17,r19
 1204948:	2021883a 	mov	r16,r4
 120494c:	11400315 	stw	r5,12(r2)
 1204950:	28800215 	stw	r2,8(r5)
 1204954:	003f7906 	br	120473c <__alt_mem_instruction_tcm+0xff20473c>
 1204958:	21000117 	ldw	r4,4(r4)
 120495c:	00bfff04 	movi	r2,-4
 1204960:	a1800404 	addi	r6,r20,16
 1204964:	2088703a 	and	r4,r4,r2
 1204968:	2409883a 	add	r4,r4,r16
 120496c:	2180380e 	bge	r4,r6,1204a50 <_realloc_r+0x47c>
 1204970:	18c0004c 	andi	r3,r3,1
 1204974:	183fc51e 	bne	r3,zero,120488c <__alt_mem_instruction_tcm+0xff20488c>
 1204978:	9dfffe17 	ldw	r23,-8(r19)
 120497c:	adefc83a 	sub	r23,r21,r23
 1204980:	b9400117 	ldw	r5,4(r23)
 1204984:	288a703a 	and	r5,r5,r2
 1204988:	216d883a 	add	r22,r4,r5
 120498c:	b1bf8b16 	blt	r22,r6,12047bc <__alt_mem_instruction_tcm+0xff2047bc>
 1204990:	b8800317 	ldw	r2,12(r23)
 1204994:	b8c00217 	ldw	r3,8(r23)
 1204998:	81bfff04 	addi	r6,r16,-4
 120499c:	01000904 	movi	r4,36
 12049a0:	18800315 	stw	r2,12(r3)
 12049a4:	10c00215 	stw	r3,8(r2)
 12049a8:	bc400204 	addi	r17,r23,8
 12049ac:	21805a36 	bltu	r4,r6,1204b18 <_realloc_r+0x544>
 12049b0:	008004c4 	movi	r2,19
 12049b4:	1180562e 	bgeu	r2,r6,1204b10 <_realloc_r+0x53c>
 12049b8:	98800017 	ldw	r2,0(r19)
 12049bc:	b8800215 	stw	r2,8(r23)
 12049c0:	98800117 	ldw	r2,4(r19)
 12049c4:	b8800315 	stw	r2,12(r23)
 12049c8:	008006c4 	movi	r2,27
 12049cc:	11805636 	bltu	r2,r6,1204b28 <_realloc_r+0x554>
 12049d0:	b8800404 	addi	r2,r23,16
 12049d4:	9cc00204 	addi	r19,r19,8
 12049d8:	98c00017 	ldw	r3,0(r19)
 12049dc:	10c00015 	stw	r3,0(r2)
 12049e0:	98c00117 	ldw	r3,4(r19)
 12049e4:	10c00115 	stw	r3,4(r2)
 12049e8:	98c00217 	ldw	r3,8(r19)
 12049ec:	10c00215 	stw	r3,8(r2)
 12049f0:	bd07883a 	add	r3,r23,r20
 12049f4:	b505c83a 	sub	r2,r22,r20
 12049f8:	e0c00215 	stw	r3,8(fp)
 12049fc:	10800054 	ori	r2,r2,1
 1204a00:	18800115 	stw	r2,4(r3)
 1204a04:	b8800117 	ldw	r2,4(r23)
 1204a08:	9009883a 	mov	r4,r18
 1204a0c:	1080004c 	andi	r2,r2,1
 1204a10:	a0a8b03a 	or	r20,r20,r2
 1204a14:	bd000115 	stw	r20,4(r23)
 1204a18:	12131740 	call	1213174 <__malloc_unlock>
 1204a1c:	8805883a 	mov	r2,r17
 1204a20:	003f5306 	br	1204770 <__alt_mem_instruction_tcm+0xff204770>
 1204a24:	98c00017 	ldw	r3,0(r19)
 1204a28:	88c00015 	stw	r3,0(r17)
 1204a2c:	98c00117 	ldw	r3,4(r19)
 1204a30:	88c00115 	stw	r3,4(r17)
 1204a34:	00c006c4 	movi	r3,27
 1204a38:	19801d36 	bltu	r3,r6,1204ab0 <_realloc_r+0x4dc>
 1204a3c:	88800204 	addi	r2,r17,8
 1204a40:	98c00204 	addi	r3,r19,8
 1204a44:	003fa306 	br	12048d4 <__alt_mem_instruction_tcm+0xff2048d4>
 1204a48:	8807883a 	mov	r3,r17
 1204a4c:	003f7406 	br	1204820 <__alt_mem_instruction_tcm+0xff204820>
 1204a50:	ad2b883a 	add	r21,r21,r20
 1204a54:	2505c83a 	sub	r2,r4,r20
 1204a58:	e5400215 	stw	r21,8(fp)
 1204a5c:	10800054 	ori	r2,r2,1
 1204a60:	a8800115 	stw	r2,4(r21)
 1204a64:	98bfff17 	ldw	r2,-4(r19)
 1204a68:	9009883a 	mov	r4,r18
 1204a6c:	1080004c 	andi	r2,r2,1
 1204a70:	a0a8b03a 	or	r20,r20,r2
 1204a74:	9d3fff15 	stw	r20,-4(r19)
 1204a78:	12131740 	call	1213174 <__malloc_unlock>
 1204a7c:	9805883a 	mov	r2,r19
 1204a80:	003f3b06 	br	1204770 <__alt_mem_instruction_tcm+0xff204770>
 1204a84:	8809883a 	mov	r4,r17
 1204a88:	980b883a 	mov	r5,r19
 1204a8c:	120441c0 	call	120441c <memmove>
 1204a90:	003f9606 	br	12048ec <__alt_mem_instruction_tcm+0xff2048ec>
 1204a94:	8809883a 	mov	r4,r17
 1204a98:	980b883a 	mov	r5,r19
 1204a9c:	120441c0 	call	120441c <memmove>
 1204aa0:	b8c00117 	ldw	r3,4(r23)
 1204aa4:	b021883a 	mov	r16,r22
 1204aa8:	b82b883a 	mov	r21,r23
 1204aac:	003f2306 	br	120473c <__alt_mem_instruction_tcm+0xff20473c>
 1204ab0:	98c00217 	ldw	r3,8(r19)
 1204ab4:	88c00215 	stw	r3,8(r17)
 1204ab8:	98c00317 	ldw	r3,12(r19)
 1204abc:	88c00315 	stw	r3,12(r17)
 1204ac0:	30800c26 	beq	r6,r2,1204af4 <_realloc_r+0x520>
 1204ac4:	88800404 	addi	r2,r17,16
 1204ac8:	98c00404 	addi	r3,r19,16
 1204acc:	003f8106 	br	12048d4 <__alt_mem_instruction_tcm+0xff2048d4>
 1204ad0:	893fff17 	ldw	r4,-4(r17)
 1204ad4:	00bfff04 	movi	r2,-4
 1204ad8:	9823883a 	mov	r17,r19
 1204adc:	2084703a 	and	r2,r4,r2
 1204ae0:	80a1883a 	add	r16,r16,r2
 1204ae4:	003f1506 	br	120473c <__alt_mem_instruction_tcm+0xff20473c>
 1204ae8:	b8c00404 	addi	r3,r23,16
 1204aec:	9cc00204 	addi	r19,r19,8
 1204af0:	003f4b06 	br	1204820 <__alt_mem_instruction_tcm+0xff204820>
 1204af4:	99000417 	ldw	r4,16(r19)
 1204af8:	88800604 	addi	r2,r17,24
 1204afc:	98c00604 	addi	r3,r19,24
 1204b00:	89000415 	stw	r4,16(r17)
 1204b04:	99000517 	ldw	r4,20(r19)
 1204b08:	89000515 	stw	r4,20(r17)
 1204b0c:	003f7106 	br	12048d4 <__alt_mem_instruction_tcm+0xff2048d4>
 1204b10:	8805883a 	mov	r2,r17
 1204b14:	003fb006 	br	12049d8 <__alt_mem_instruction_tcm+0xff2049d8>
 1204b18:	8809883a 	mov	r4,r17
 1204b1c:	980b883a 	mov	r5,r19
 1204b20:	120441c0 	call	120441c <memmove>
 1204b24:	003fb206 	br	12049f0 <__alt_mem_instruction_tcm+0xff2049f0>
 1204b28:	98800217 	ldw	r2,8(r19)
 1204b2c:	b8800415 	stw	r2,16(r23)
 1204b30:	98800317 	ldw	r2,12(r19)
 1204b34:	b8800515 	stw	r2,20(r23)
 1204b38:	31000726 	beq	r6,r4,1204b58 <_realloc_r+0x584>
 1204b3c:	b8800604 	addi	r2,r23,24
 1204b40:	9cc00404 	addi	r19,r19,16
 1204b44:	003fa406 	br	12049d8 <__alt_mem_instruction_tcm+0xff2049d8>
 1204b48:	9009883a 	mov	r4,r18
 1204b4c:	12131740 	call	1213174 <__malloc_unlock>
 1204b50:	0005883a 	mov	r2,zero
 1204b54:	003f0606 	br	1204770 <__alt_mem_instruction_tcm+0xff204770>
 1204b58:	98c00417 	ldw	r3,16(r19)
 1204b5c:	9cc00604 	addi	r19,r19,24
 1204b60:	b8800804 	addi	r2,r23,32
 1204b64:	b8c00615 	stw	r3,24(r23)
 1204b68:	98ffff17 	ldw	r3,-4(r19)
 1204b6c:	b8c00715 	stw	r3,28(r23)
 1204b70:	003f9906 	br	12049d8 <__alt_mem_instruction_tcm+0xff2049d8>

01204b74 <__fpclassifyd>:
 1204b74:	00a00034 	movhi	r2,32768
 1204b78:	10bfffc4 	addi	r2,r2,-1
 1204b7c:	2884703a 	and	r2,r5,r2
 1204b80:	10000726 	beq	r2,zero,1204ba0 <__fpclassifyd+0x2c>
 1204b84:	00fffc34 	movhi	r3,65520
 1204b88:	019ff834 	movhi	r6,32736
 1204b8c:	28c7883a 	add	r3,r5,r3
 1204b90:	31bfffc4 	addi	r6,r6,-1
 1204b94:	30c00536 	bltu	r6,r3,1204bac <__fpclassifyd+0x38>
 1204b98:	00800104 	movi	r2,4
 1204b9c:	f800283a 	ret
 1204ba0:	2000021e 	bne	r4,zero,1204bac <__fpclassifyd+0x38>
 1204ba4:	00800084 	movi	r2,2
 1204ba8:	f800283a 	ret
 1204bac:	00dffc34 	movhi	r3,32752
 1204bb0:	019ff834 	movhi	r6,32736
 1204bb4:	28cb883a 	add	r5,r5,r3
 1204bb8:	31bfffc4 	addi	r6,r6,-1
 1204bbc:	317ff62e 	bgeu	r6,r5,1204b98 <__alt_mem_instruction_tcm+0xff204b98>
 1204bc0:	01400434 	movhi	r5,16
 1204bc4:	297fffc4 	addi	r5,r5,-1
 1204bc8:	28800236 	bltu	r5,r2,1204bd4 <__fpclassifyd+0x60>
 1204bcc:	008000c4 	movi	r2,3
 1204bd0:	f800283a 	ret
 1204bd4:	10c00226 	beq	r2,r3,1204be0 <__fpclassifyd+0x6c>
 1204bd8:	0005883a 	mov	r2,zero
 1204bdc:	f800283a 	ret
 1204be0:	2005003a 	cmpeq	r2,r4,zero
 1204be4:	f800283a 	ret

01204be8 <__sccl>:
 1204be8:	2a000003 	ldbu	r8,0(r5)
 1204bec:	00801784 	movi	r2,94
 1204bf0:	40802526 	beq	r8,r2,1204c88 <__sccl+0xa0>
 1204bf4:	29400044 	addi	r5,r5,1
 1204bf8:	000f883a 	mov	r7,zero
 1204bfc:	0013883a 	mov	r9,zero
 1204c00:	2007883a 	mov	r3,r4
 1204c04:	21804004 	addi	r6,r4,256
 1204c08:	19c00005 	stb	r7,0(r3)
 1204c0c:	18c00044 	addi	r3,r3,1
 1204c10:	19bffd1e 	bne	r3,r6,1204c08 <__alt_mem_instruction_tcm+0xff204c08>
 1204c14:	40001026 	beq	r8,zero,1204c58 <__sccl+0x70>
 1204c18:	00800044 	movi	r2,1
 1204c1c:	124dc83a 	sub	r6,r2,r9
 1204c20:	02801744 	movi	r10,93
 1204c24:	02400b44 	movi	r9,45
 1204c28:	2205883a 	add	r2,r4,r8
 1204c2c:	11800005 	stb	r6,0(r2)
 1204c30:	28800044 	addi	r2,r5,1
 1204c34:	28c00003 	ldbu	r3,0(r5)
 1204c38:	1a400926 	beq	r3,r9,1204c60 <__sccl+0x78>
 1204c3c:	1a800526 	beq	r3,r10,1204c54 <__sccl+0x6c>
 1204c40:	18000326 	beq	r3,zero,1204c50 <__sccl+0x68>
 1204c44:	1811883a 	mov	r8,r3
 1204c48:	100b883a 	mov	r5,r2
 1204c4c:	003ff606 	br	1204c28 <__alt_mem_instruction_tcm+0xff204c28>
 1204c50:	2805883a 	mov	r2,r5
 1204c54:	f800283a 	ret
 1204c58:	28bfffc4 	addi	r2,r5,-1
 1204c5c:	f800283a 	ret
 1204c60:	11c00003 	ldbu	r7,0(r2)
 1204c64:	3a800d26 	beq	r7,r10,1204c9c <__sccl+0xb4>
 1204c68:	3a000c16 	blt	r7,r8,1204c9c <__sccl+0xb4>
 1204c6c:	29400084 	addi	r5,r5,2
 1204c70:	42000044 	addi	r8,r8,1
 1204c74:	2207883a 	add	r3,r4,r8
 1204c78:	19800005 	stb	r6,0(r3)
 1204c7c:	41fffc16 	blt	r8,r7,1204c70 <__alt_mem_instruction_tcm+0xff204c70>
 1204c80:	10800084 	addi	r2,r2,2
 1204c84:	003feb06 	br	1204c34 <__alt_mem_instruction_tcm+0xff204c34>
 1204c88:	2a000043 	ldbu	r8,1(r5)
 1204c8c:	01c00044 	movi	r7,1
 1204c90:	29400084 	addi	r5,r5,2
 1204c94:	02400044 	movi	r9,1
 1204c98:	003fd906 	br	1204c00 <__alt_mem_instruction_tcm+0xff204c00>
 1204c9c:	100b883a 	mov	r5,r2
 1204ca0:	4811883a 	mov	r8,r9
 1204ca4:	003fe006 	br	1204c28 <__alt_mem_instruction_tcm+0xff204c28>

01204ca8 <nanf>:
 1204ca8:	009ff034 	movhi	r2,32704
 1204cac:	f800283a 	ret

01204cb0 <_sprintf_r>:
 1204cb0:	deffe404 	addi	sp,sp,-112
 1204cb4:	2807883a 	mov	r3,r5
 1204cb8:	dfc01a15 	stw	ra,104(sp)
 1204cbc:	d9c01b15 	stw	r7,108(sp)
 1204cc0:	00a00034 	movhi	r2,32768
 1204cc4:	10bfffc4 	addi	r2,r2,-1
 1204cc8:	02008204 	movi	r8,520
 1204ccc:	d8800215 	stw	r2,8(sp)
 1204cd0:	d8800515 	stw	r2,20(sp)
 1204cd4:	d80b883a 	mov	r5,sp
 1204cd8:	d9c01b04 	addi	r7,sp,108
 1204cdc:	00bfffc4 	movi	r2,-1
 1204ce0:	d8c00015 	stw	r3,0(sp)
 1204ce4:	d8c00415 	stw	r3,16(sp)
 1204ce8:	da00030d 	sth	r8,12(sp)
 1204cec:	d880038d 	sth	r2,14(sp)
 1204cf0:	12083100 	call	1208310 <___svfprintf_internal_r>
 1204cf4:	d8c00017 	ldw	r3,0(sp)
 1204cf8:	18000005 	stb	zero,0(r3)
 1204cfc:	dfc01a17 	ldw	ra,104(sp)
 1204d00:	dec01c04 	addi	sp,sp,112
 1204d04:	f800283a 	ret

01204d08 <sprintf>:
 1204d08:	deffe304 	addi	sp,sp,-116
 1204d0c:	2007883a 	mov	r3,r4
 1204d10:	dfc01a15 	stw	ra,104(sp)
 1204d14:	d9801b15 	stw	r6,108(sp)
 1204d18:	d9c01c15 	stw	r7,112(sp)
 1204d1c:	010048b4 	movhi	r4,290
 1204d20:	21084104 	addi	r4,r4,8452
 1204d24:	21000017 	ldw	r4,0(r4)
 1204d28:	00a00034 	movhi	r2,32768
 1204d2c:	10bfffc4 	addi	r2,r2,-1
 1204d30:	280d883a 	mov	r6,r5
 1204d34:	02008204 	movi	r8,520
 1204d38:	d8800215 	stw	r2,8(sp)
 1204d3c:	d8800515 	stw	r2,20(sp)
 1204d40:	d80b883a 	mov	r5,sp
 1204d44:	d9c01b04 	addi	r7,sp,108
 1204d48:	00bfffc4 	movi	r2,-1
 1204d4c:	d8c00015 	stw	r3,0(sp)
 1204d50:	d8c00415 	stw	r3,16(sp)
 1204d54:	da00030d 	sth	r8,12(sp)
 1204d58:	d880038d 	sth	r2,14(sp)
 1204d5c:	12083100 	call	1208310 <___svfprintf_internal_r>
 1204d60:	d8c00017 	ldw	r3,0(sp)
 1204d64:	18000005 	stb	zero,0(r3)
 1204d68:	dfc01a17 	ldw	ra,104(sp)
 1204d6c:	dec01d04 	addi	sp,sp,116
 1204d70:	f800283a 	ret

01204d74 <strcmp>:
 1204d74:	2144b03a 	or	r2,r4,r5
 1204d78:	108000cc 	andi	r2,r2,3
 1204d7c:	1000171e 	bne	r2,zero,1204ddc <strcmp+0x68>
 1204d80:	20800017 	ldw	r2,0(r4)
 1204d84:	28c00017 	ldw	r3,0(r5)
 1204d88:	10c0141e 	bne	r2,r3,1204ddc <strcmp+0x68>
 1204d8c:	027fbff4 	movhi	r9,65279
 1204d90:	4a7fbfc4 	addi	r9,r9,-257
 1204d94:	0086303a 	nor	r3,zero,r2
 1204d98:	02202074 	movhi	r8,32897
 1204d9c:	1245883a 	add	r2,r2,r9
 1204da0:	42202004 	addi	r8,r8,-32640
 1204da4:	10c4703a 	and	r2,r2,r3
 1204da8:	1204703a 	and	r2,r2,r8
 1204dac:	10000226 	beq	r2,zero,1204db8 <strcmp+0x44>
 1204db0:	00001706 	br	1204e10 <strcmp+0x9c>
 1204db4:	1000161e 	bne	r2,zero,1204e10 <strcmp+0x9c>
 1204db8:	21000104 	addi	r4,r4,4
 1204dbc:	20c00017 	ldw	r3,0(r4)
 1204dc0:	29400104 	addi	r5,r5,4
 1204dc4:	29800017 	ldw	r6,0(r5)
 1204dc8:	1a4f883a 	add	r7,r3,r9
 1204dcc:	00c4303a 	nor	r2,zero,r3
 1204dd0:	3884703a 	and	r2,r7,r2
 1204dd4:	1204703a 	and	r2,r2,r8
 1204dd8:	19bff626 	beq	r3,r6,1204db4 <__alt_mem_instruction_tcm+0xff204db4>
 1204ddc:	20800007 	ldb	r2,0(r4)
 1204de0:	1000051e 	bne	r2,zero,1204df8 <strcmp+0x84>
 1204de4:	00000606 	br	1204e00 <strcmp+0x8c>
 1204de8:	21000044 	addi	r4,r4,1
 1204dec:	20800007 	ldb	r2,0(r4)
 1204df0:	29400044 	addi	r5,r5,1
 1204df4:	10000226 	beq	r2,zero,1204e00 <strcmp+0x8c>
 1204df8:	28c00007 	ldb	r3,0(r5)
 1204dfc:	10fffa26 	beq	r2,r3,1204de8 <__alt_mem_instruction_tcm+0xff204de8>
 1204e00:	20800003 	ldbu	r2,0(r4)
 1204e04:	28c00003 	ldbu	r3,0(r5)
 1204e08:	10c5c83a 	sub	r2,r2,r3
 1204e0c:	f800283a 	ret
 1204e10:	0005883a 	mov	r2,zero
 1204e14:	f800283a 	ret

01204e18 <_strtod_r>:
 1204e18:	deffe104 	addi	sp,sp,-124
 1204e1c:	dd801b15 	stw	r22,108(sp)
 1204e20:	dc001515 	stw	r16,84(sp)
 1204e24:	d9400615 	stw	r5,24(sp)
 1204e28:	dfc01e15 	stw	ra,120(sp)
 1204e2c:	df001d15 	stw	fp,116(sp)
 1204e30:	ddc01c15 	stw	r23,112(sp)
 1204e34:	dd401a15 	stw	r21,104(sp)
 1204e38:	dd001915 	stw	r20,100(sp)
 1204e3c:	dcc01815 	stw	r19,96(sp)
 1204e40:	dc801715 	stw	r18,92(sp)
 1204e44:	dc401615 	stw	r17,88(sp)
 1204e48:	2021883a 	mov	r16,r4
 1204e4c:	2809883a 	mov	r4,r5
 1204e50:	20800003 	ldbu	r2,0(r4)
 1204e54:	01c04834 	movhi	r7,288
 1204e58:	282d883a 	mov	r22,r5
 1204e5c:	d9800c15 	stw	r6,48(sp)
 1204e60:	d8000815 	stw	zero,32(sp)
 1204e64:	d8000715 	stw	zero,28(sp)
 1204e68:	01400b44 	movi	r5,45
 1204e6c:	10c03fcc 	andi	r3,r2,255
 1204e70:	39d3a204 	addi	r7,r7,20104
 1204e74:	28c0bc36 	bltu	r5,r3,1205168 <_strtod_r+0x350>
 1204e78:	180690ba 	slli	r3,r3,2
 1204e7c:	19c7883a 	add	r3,r3,r7
 1204e80:	18c00017 	ldw	r3,0(r3)
 1204e84:	1800683a 	jmp	r3
 1204e88:	01204f48 	cmpgei	r4,zero,-32451
 1204e8c:	01205168 	cmpgeui	r4,zero,33093
 1204e90:	01205168 	cmpgeui	r4,zero,33093
 1204e94:	01205168 	cmpgeui	r4,zero,33093
 1204e98:	01205168 	cmpgeui	r4,zero,33093
 1204e9c:	01205168 	cmpgeui	r4,zero,33093
 1204ea0:	01205168 	cmpgeui	r4,zero,33093
 1204ea4:	01205168 	cmpgeui	r4,zero,33093
 1204ea8:	01205168 	cmpgeui	r4,zero,33093
 1204eac:	01205154 	movui	r4,33093
 1204eb0:	01205154 	movui	r4,33093
 1204eb4:	01205154 	movui	r4,33093
 1204eb8:	01205154 	movui	r4,33093
 1204ebc:	01205154 	movui	r4,33093
 1204ec0:	01205168 	cmpgeui	r4,zero,33093
 1204ec4:	01205168 	cmpgeui	r4,zero,33093
 1204ec8:	01205168 	cmpgeui	r4,zero,33093
 1204ecc:	01205168 	cmpgeui	r4,zero,33093
 1204ed0:	01205168 	cmpgeui	r4,zero,33093
 1204ed4:	01205168 	cmpgeui	r4,zero,33093
 1204ed8:	01205168 	cmpgeui	r4,zero,33093
 1204edc:	01205168 	cmpgeui	r4,zero,33093
 1204ee0:	01205168 	cmpgeui	r4,zero,33093
 1204ee4:	01205168 	cmpgeui	r4,zero,33093
 1204ee8:	01205168 	cmpgeui	r4,zero,33093
 1204eec:	01205168 	cmpgeui	r4,zero,33093
 1204ef0:	01205168 	cmpgeui	r4,zero,33093
 1204ef4:	01205168 	cmpgeui	r4,zero,33093
 1204ef8:	01205168 	cmpgeui	r4,zero,33093
 1204efc:	01205168 	cmpgeui	r4,zero,33093
 1204f00:	01205168 	cmpgeui	r4,zero,33093
 1204f04:	01205168 	cmpgeui	r4,zero,33093
 1204f08:	01205154 	movui	r4,33093
 1204f0c:	01205168 	cmpgeui	r4,zero,33093
 1204f10:	01205168 	cmpgeui	r4,zero,33093
 1204f14:	01205168 	cmpgeui	r4,zero,33093
 1204f18:	01205168 	cmpgeui	r4,zero,33093
 1204f1c:	01205168 	cmpgeui	r4,zero,33093
 1204f20:	01205168 	cmpgeui	r4,zero,33093
 1204f24:	01205168 	cmpgeui	r4,zero,33093
 1204f28:	01205168 	cmpgeui	r4,zero,33093
 1204f2c:	01205168 	cmpgeui	r4,zero,33093
 1204f30:	01205168 	cmpgeui	r4,zero,33093
 1204f34:	01204fa8 	cmpgeui	r4,zero,33086
 1204f38:	01205168 	cmpgeui	r4,zero,33093
 1204f3c:	01205148 	cmpgei	r4,zero,-32443
 1204f40:	00801244 	movi	r2,73
 1204f44:	98849c26 	beq	r19,r2,12061b8 <_strtod_r+0x13a0>
 1204f48:	002b883a 	mov	r21,zero
 1204f4c:	0023883a 	mov	r17,zero
 1204f50:	d8800c17 	ldw	r2,48(sp)
 1204f54:	10000626 	beq	r2,zero,1204f70 <_strtod_r+0x158>
 1204f58:	d8001015 	stw	zero,64(sp)
 1204f5c:	d8800c17 	ldw	r2,48(sp)
 1204f60:	15800015 	stw	r22,0(r2)
 1204f64:	d8c01017 	ldw	r3,64(sp)
 1204f68:	18000126 	beq	r3,zero,1204f70 <_strtod_r+0x158>
 1204f6c:	8c60003c 	xorhi	r17,r17,32768
 1204f70:	a805883a 	mov	r2,r21
 1204f74:	8807883a 	mov	r3,r17
 1204f78:	dfc01e17 	ldw	ra,120(sp)
 1204f7c:	df001d17 	ldw	fp,116(sp)
 1204f80:	ddc01c17 	ldw	r23,112(sp)
 1204f84:	dd801b17 	ldw	r22,108(sp)
 1204f88:	dd401a17 	ldw	r21,104(sp)
 1204f8c:	dd001917 	ldw	r20,100(sp)
 1204f90:	dcc01817 	ldw	r19,96(sp)
 1204f94:	dc801717 	ldw	r18,92(sp)
 1204f98:	dc401617 	ldw	r17,88(sp)
 1204f9c:	dc001517 	ldw	r16,84(sp)
 1204fa0:	dec01f04 	addi	sp,sp,124
 1204fa4:	f800283a 	ret
 1204fa8:	d8001015 	stw	zero,64(sp)
 1204fac:	24800044 	addi	r18,r4,1
 1204fb0:	dc800615 	stw	r18,24(sp)
 1204fb4:	20800043 	ldbu	r2,1(r4)
 1204fb8:	10c03fcc 	andi	r3,r2,255
 1204fbc:	18c0201c 	xori	r3,r3,128
 1204fc0:	18ffe004 	addi	r3,r3,-128
 1204fc4:	183fe026 	beq	r3,zero,1204f48 <__alt_mem_instruction_tcm+0xff204f48>
 1204fc8:	11403fcc 	andi	r5,r2,255
 1204fcc:	2940201c 	xori	r5,r5,128
 1204fd0:	297fe004 	addi	r5,r5,-128
 1204fd4:	00c00c04 	movi	r3,48
 1204fd8:	28c0f226 	beq	r5,r3,12053a4 <_strtod_r+0x58c>
 1204fdc:	0023883a 	mov	r17,zero
 1204fe0:	10fff404 	addi	r3,r2,-48
 1204fe4:	18c03fcc 	andi	r3,r3,255
 1204fe8:	01800244 	movi	r6,9
 1204fec:	30c3d336 	bltu	r6,r3,1205f3c <_strtod_r+0x1124>
 1204ff0:	91000044 	addi	r4,r18,1
 1204ff4:	002b883a 	mov	r21,zero
 1204ff8:	002f883a 	mov	r23,zero
 1204ffc:	0029883a 	mov	r20,zero
 1205000:	02000204 	movi	r8,8
 1205004:	024003c4 	movi	r9,15
 1205008:	45005a16 	blt	r8,r20,1205174 <_strtod_r+0x35c>
 120500c:	bdc002a4 	muli	r23,r23,10
 1205010:	10803fcc 	andi	r2,r2,255
 1205014:	1080201c 	xori	r2,r2,128
 1205018:	10bfe004 	addi	r2,r2,-128
 120501c:	b885883a 	add	r2,r23,r2
 1205020:	15fff404 	addi	r23,r2,-48
 1205024:	d9000615 	stw	r4,24(sp)
 1205028:	20800003 	ldbu	r2,0(r4)
 120502c:	2039883a 	mov	fp,r4
 1205030:	a5000044 	addi	r20,r20,1
 1205034:	10fff404 	addi	r3,r2,-48
 1205038:	18c03fcc 	andi	r3,r3,255
 120503c:	21000044 	addi	r4,r4,1
 1205040:	30fff12e 	bgeu	r6,r3,1205008 <__alt_mem_instruction_tcm+0xff205008>
 1205044:	14c03fcc 	andi	r19,r2,255
 1205048:	9cc0201c 	xori	r19,r19,128
 120504c:	9cffe004 	addi	r19,r19,-128
 1205050:	8009883a 	mov	r4,r16
 1205054:	1203f980 	call	1203f98 <_localeconv_r>
 1205058:	11400017 	ldw	r5,0(r2)
 120505c:	8009883a 	mov	r4,r16
 1205060:	d9401315 	stw	r5,76(sp)
 1205064:	1203f980 	call	1203f98 <_localeconv_r>
 1205068:	11000017 	ldw	r4,0(r2)
 120506c:	12019e80 	call	12019e8 <strlen>
 1205070:	d9401317 	ldw	r5,76(sp)
 1205074:	e009883a 	mov	r4,fp
 1205078:	100d883a 	mov	r6,r2
 120507c:	120dbdc0 	call	120dbdc <strncmp>
 1205080:	1000d926 	beq	r2,zero,12053e8 <_strtod_r+0x5d0>
 1205084:	a039883a 	mov	fp,r20
 1205088:	000b883a 	mov	r5,zero
 120508c:	0011883a 	mov	r8,zero
 1205090:	0013883a 	mov	r9,zero
 1205094:	00801944 	movi	r2,101
 1205098:	98804426 	beq	r19,r2,12051ac <_strtod_r+0x394>
 120509c:	00801144 	movi	r2,69
 12050a0:	98804226 	beq	r19,r2,12051ac <_strtod_r+0x394>
 12050a4:	000f883a 	mov	r7,zero
 12050a8:	e0007f1e 	bne	fp,zero,12052a8 <_strtod_r+0x490>
 12050ac:	2800391e 	bne	r5,zero,1205194 <_strtod_r+0x37c>
 12050b0:	8800381e 	bne	r17,zero,1205194 <_strtod_r+0x37c>
 12050b4:	4800b71e 	bne	r9,zero,1205394 <_strtod_r+0x57c>
 12050b8:	00801384 	movi	r2,78
 12050bc:	98800526 	beq	r19,r2,12050d4 <_strtod_r+0x2bc>
 12050c0:	14ff9f0e 	bge	r2,r19,1204f40 <__alt_mem_instruction_tcm+0xff204f40>
 12050c4:	00801a44 	movi	r2,105
 12050c8:	98843b26 	beq	r19,r2,12061b8 <_strtod_r+0x13a0>
 12050cc:	00801b84 	movi	r2,110
 12050d0:	98bf9d1e 	bne	r19,r2,1204f48 <__alt_mem_instruction_tcm+0xff204f48>
 12050d4:	014048b4 	movhi	r5,290
 12050d8:	d9000617 	ldw	r4,24(sp)
 12050dc:	29402f04 	addi	r5,r5,188
 12050e0:	01c00644 	movi	r7,25
 12050e4:	00000b06 	br	1205114 <_strtod_r+0x2fc>
 12050e8:	21000044 	addi	r4,r4,1
 12050ec:	20800003 	ldbu	r2,0(r4)
 12050f0:	10ffefc4 	addi	r3,r2,-65
 12050f4:	10803fcc 	andi	r2,r2,255
 12050f8:	1080201c 	xori	r2,r2,128
 12050fc:	18c03fcc 	andi	r3,r3,255
 1205100:	10bfe004 	addi	r2,r2,-128
 1205104:	38c00136 	bltu	r7,r3,120510c <_strtod_r+0x2f4>
 1205108:	10800804 	addi	r2,r2,32
 120510c:	29400044 	addi	r5,r5,1
 1205110:	11bf8d1e 	bne	r2,r6,1204f48 <__alt_mem_instruction_tcm+0xff204f48>
 1205114:	29800007 	ldb	r6,0(r5)
 1205118:	303ff31e 	bne	r6,zero,12050e8 <__alt_mem_instruction_tcm+0xff2050e8>
 120511c:	20800044 	addi	r2,r4,1
 1205120:	d8800615 	stw	r2,24(sp)
 1205124:	20c00047 	ldb	r3,1(r4)
 1205128:	00800a04 	movi	r2,40
 120512c:	18846d26 	beq	r3,r2,12062e4 <_strtod_r+0x14cc>
 1205130:	013ffe34 	movhi	r4,65528
 1205134:	d9000715 	stw	r4,28(sp)
 1205138:	d8000815 	stw	zero,32(sp)
 120513c:	dd400817 	ldw	r21,32(sp)
 1205140:	dc400717 	ldw	r17,28(sp)
 1205144:	00001506 	br	120519c <_strtod_r+0x384>
 1205148:	00800044 	movi	r2,1
 120514c:	d8801015 	stw	r2,64(sp)
 1205150:	003f9606 	br	1204fac <__alt_mem_instruction_tcm+0xff204fac>
 1205154:	21000044 	addi	r4,r4,1
 1205158:	d9000615 	stw	r4,24(sp)
 120515c:	20800003 	ldbu	r2,0(r4)
 1205160:	10c03fcc 	andi	r3,r2,255
 1205164:	28ff442e 	bgeu	r5,r3,1204e78 <__alt_mem_instruction_tcm+0xff204e78>
 1205168:	2025883a 	mov	r18,r4
 120516c:	d8001015 	stw	zero,64(sp)
 1205170:	003f9506 	br	1204fc8 <__alt_mem_instruction_tcm+0xff204fc8>
 1205174:	4d3fab16 	blt	r9,r20,1205024 <__alt_mem_instruction_tcm+0xff205024>
 1205178:	ad4002a4 	muli	r21,r21,10
 120517c:	10c03fcc 	andi	r3,r2,255
 1205180:	18c0201c 	xori	r3,r3,128
 1205184:	18ffe004 	addi	r3,r3,-128
 1205188:	a8eb883a 	add	r21,r21,r3
 120518c:	ad7ff404 	addi	r21,r21,-48
 1205190:	003fa406 	br	1205024 <__alt_mem_instruction_tcm+0xff205024>
 1205194:	002b883a 	mov	r21,zero
 1205198:	0023883a 	mov	r17,zero
 120519c:	d9000c17 	ldw	r4,48(sp)
 12051a0:	203f7026 	beq	r4,zero,1204f64 <__alt_mem_instruction_tcm+0xff204f64>
 12051a4:	dd800617 	ldw	r22,24(sp)
 12051a8:	003f6c06 	br	1204f5c <__alt_mem_instruction_tcm+0xff204f5c>
 12051ac:	e0007726 	beq	fp,zero,120538c <_strtod_r+0x574>
 12051b0:	dd800617 	ldw	r22,24(sp)
 12051b4:	00c00ac4 	movi	r3,43
 12051b8:	b0800044 	addi	r2,r22,1
 12051bc:	d8800615 	stw	r2,24(sp)
 12051c0:	b0800047 	ldb	r2,1(r22)
 12051c4:	10c25726 	beq	r2,r3,1205b24 <_strtod_r+0xd0c>
 12051c8:	00c00b44 	movi	r3,45
 12051cc:	10c25026 	beq	r2,r3,1205b10 <_strtod_r+0xcf8>
 12051d0:	1027883a 	mov	r19,r2
 12051d4:	000f883a 	mov	r7,zero
 12051d8:	98fff404 	addi	r3,r19,-48
 12051dc:	01000244 	movi	r4,9
 12051e0:	9805883a 	mov	r2,r19
 12051e4:	20c23836 	bltu	r4,r3,1205ac8 <_strtod_r+0xcb0>
 12051e8:	00c00c04 	movi	r3,48
 12051ec:	98c0071e 	bne	r19,r3,120520c <_strtod_r+0x3f4>
 12051f0:	d8c00617 	ldw	r3,24(sp)
 12051f4:	18c00044 	addi	r3,r3,1
 12051f8:	d8c00615 	stw	r3,24(sp)
 12051fc:	18800007 	ldb	r2,0(r3)
 1205200:	18c00044 	addi	r3,r3,1
 1205204:	14fffc26 	beq	r2,r19,12051f8 <__alt_mem_instruction_tcm+0xff2051f8>
 1205208:	1027883a 	mov	r19,r2
 120520c:	10bff3c4 	addi	r2,r2,-49
 1205210:	00c00204 	movi	r3,8
 1205214:	18bfa336 	bltu	r3,r2,12050a4 <__alt_mem_instruction_tcm+0xff2050a4>
 1205218:	db000617 	ldw	r12,24(sp)
 120521c:	98bff404 	addi	r2,r19,-48
 1205220:	02c00244 	movi	r11,9
 1205224:	62800044 	addi	r10,r12,1
 1205228:	da800615 	stw	r10,24(sp)
 120522c:	64c00043 	ldbu	r19,1(r12)
 1205230:	98fff404 	addi	r3,r19,-48
 1205234:	9cc03fcc 	andi	r19,r19,255
 1205238:	9cc0201c 	xori	r19,r19,128
 120523c:	18c03fcc 	andi	r3,r3,255
 1205240:	9cffe004 	addi	r19,r19,-128
 1205244:	58c00e36 	bltu	r11,r3,1205280 <_strtod_r+0x468>
 1205248:	61000084 	addi	r4,r12,2
 120524c:	d9000615 	stw	r4,24(sp)
 1205250:	108002a4 	muli	r2,r2,10
 1205254:	21800003 	ldbu	r6,0(r4)
 1205258:	2015883a 	mov	r10,r4
 120525c:	14e7883a 	add	r19,r2,r19
 1205260:	30fff404 	addi	r3,r6,-48
 1205264:	98bff404 	addi	r2,r19,-48
 1205268:	34c03fcc 	andi	r19,r6,255
 120526c:	9cc0201c 	xori	r19,r19,128
 1205270:	18c03fcc 	andi	r3,r3,255
 1205274:	9cffe004 	addi	r19,r19,-128
 1205278:	21000044 	addi	r4,r4,1
 120527c:	58fff32e 	bgeu	r11,r3,120524c <__alt_mem_instruction_tcm+0xff20524c>
 1205280:	5315c83a 	sub	r10,r10,r12
 1205284:	00c00204 	movi	r3,8
 1205288:	1a832a16 	blt	r3,r10,1205f34 <_strtod_r+0x111c>
 120528c:	00d387c4 	movi	r3,19999
 1205290:	1880010e 	bge	r3,r2,1205298 <_strtod_r+0x480>
 1205294:	1805883a 	mov	r2,r3
 1205298:	01c7c83a 	sub	r3,zero,r7
 120529c:	10c4f03a 	xor	r2,r2,r3
 12052a0:	11cf883a 	add	r7,r2,r7
 12052a4:	e03f8126 	beq	fp,zero,12050ac <__alt_mem_instruction_tcm+0xff2050ac>
 12052a8:	3a11c83a 	sub	r8,r7,r8
 12052ac:	da000e15 	stw	r8,56(sp)
 12052b0:	a000011e 	bne	r20,zero,12052b8 <_strtod_r+0x4a0>
 12052b4:	e029883a 	mov	r20,fp
 12052b8:	00800404 	movi	r2,16
 12052bc:	e023883a 	mov	r17,fp
 12052c0:	1700010e 	bge	r2,fp,12052c8 <_strtod_r+0x4b0>
 12052c4:	1023883a 	mov	r17,r2
 12052c8:	b809883a 	mov	r4,r23
 12052cc:	12123bc0 	call	12123bc <__floatunsidf>
 12052d0:	d8800815 	stw	r2,32(sp)
 12052d4:	d8c00715 	stw	r3,28(sp)
 12052d8:	00800244 	movi	r2,9
 12052dc:	1440150e 	bge	r2,r17,1205334 <_strtod_r+0x51c>
 12052e0:	88bffdc4 	addi	r2,r17,-9
 12052e4:	100490fa 	slli	r2,r2,3
 12052e8:	180b883a 	mov	r5,r3
 12052ec:	00c048b4 	movhi	r3,290
 12052f0:	18c07e04 	addi	r3,r3,504
 12052f4:	1885883a 	add	r2,r3,r2
 12052f8:	d9000817 	ldw	r4,32(sp)
 12052fc:	11800017 	ldw	r6,0(r2)
 1205300:	11c00117 	ldw	r7,4(r2)
 1205304:	12112700 	call	1211270 <__muldf3>
 1205308:	a809883a 	mov	r4,r21
 120530c:	102d883a 	mov	r22,r2
 1205310:	1827883a 	mov	r19,r3
 1205314:	12123bc0 	call	12123bc <__floatunsidf>
 1205318:	b009883a 	mov	r4,r22
 120531c:	980b883a 	mov	r5,r19
 1205320:	100d883a 	mov	r6,r2
 1205324:	180f883a 	mov	r7,r3
 1205328:	120fec40 	call	120fec4 <__adddf3>
 120532c:	d8800815 	stw	r2,32(sp)
 1205330:	d8c00715 	stw	r3,28(sp)
 1205334:	008003c4 	movi	r2,15
 1205338:	17004916 	blt	r2,fp,1205460 <_strtod_r+0x648>
 120533c:	d8c00e17 	ldw	r3,56(sp)
 1205340:	183f7e26 	beq	r3,zero,120513c <__alt_mem_instruction_tcm+0xff20513c>
 1205344:	d9000e17 	ldw	r4,56(sp)
 1205348:	0103730e 	bge	zero,r4,1206118 <_strtod_r+0x1300>
 120534c:	00c00584 	movi	r3,22
 1205350:	19030216 	blt	r3,r4,1205f5c <_strtod_r+0x1144>
 1205354:	200490fa 	slli	r2,r4,3
 1205358:	00c048b4 	movhi	r3,290
 120535c:	18c07e04 	addi	r3,r3,504
 1205360:	1885883a 	add	r2,r3,r2
 1205364:	d9800817 	ldw	r6,32(sp)
 1205368:	d9c00717 	ldw	r7,28(sp)
 120536c:	11000017 	ldw	r4,0(r2)
 1205370:	11400117 	ldw	r5,4(r2)
 1205374:	12112700 	call	1211270 <__muldf3>
 1205378:	102b883a 	mov	r21,r2
 120537c:	1823883a 	mov	r17,r3
 1205380:	003f8606 	br	120519c <__alt_mem_instruction_tcm+0xff20519c>
 1205384:	0011883a 	mov	r8,zero
 1205388:	02400044 	movi	r9,1
 120538c:	2800031e 	bne	r5,zero,120539c <_strtod_r+0x584>
 1205390:	8800021e 	bne	r17,zero,120539c <_strtod_r+0x584>
 1205394:	002b883a 	mov	r21,zero
 1205398:	003eed06 	br	1204f50 <__alt_mem_instruction_tcm+0xff204f50>
 120539c:	0039883a 	mov	fp,zero
 12053a0:	003f8306 	br	12051b0 <__alt_mem_instruction_tcm+0xff2051b0>
 12053a4:	90800047 	ldb	r2,1(r18)
 12053a8:	00c01604 	movi	r3,88
 12053ac:	10c21d26 	beq	r2,r3,1205c24 <_strtod_r+0xe0c>
 12053b0:	00c01e04 	movi	r3,120
 12053b4:	10c21b26 	beq	r2,r3,1205c24 <_strtod_r+0xe0c>
 12053b8:	90c00044 	addi	r3,r18,1
 12053bc:	1825883a 	mov	r18,r3
 12053c0:	d8c00615 	stw	r3,24(sp)
 12053c4:	18c00044 	addi	r3,r3,1
 12053c8:	18bfffc3 	ldbu	r2,-1(r3)
 12053cc:	11003fcc 	andi	r4,r2,255
 12053d0:	2100201c 	xori	r4,r4,128
 12053d4:	213fe004 	addi	r4,r4,-128
 12053d8:	217ff826 	beq	r4,r5,12053bc <__alt_mem_instruction_tcm+0xff2053bc>
 12053dc:	203f6d26 	beq	r4,zero,1205194 <__alt_mem_instruction_tcm+0xff205194>
 12053e0:	04400044 	movi	r17,1
 12053e4:	003efe06 	br	1204fe0 <__alt_mem_instruction_tcm+0xff204fe0>
 12053e8:	8009883a 	mov	r4,r16
 12053ec:	1203f980 	call	1203f98 <_localeconv_r>
 12053f0:	11000017 	ldw	r4,0(r2)
 12053f4:	12019e80 	call	12019e8 <strlen>
 12053f8:	d9000617 	ldw	r4,24(sp)
 12053fc:	2085883a 	add	r2,r4,r2
 1205400:	d8800615 	stw	r2,24(sp)
 1205404:	14c00007 	ldb	r19,0(r2)
 1205408:	a001b21e 	bne	r20,zero,1205ad4 <_strtod_r+0xcbc>
 120540c:	00c00c04 	movi	r3,48
 1205410:	98c3931e 	bne	r19,r3,1206260 <_strtod_r+0x1448>
 1205414:	10c00044 	addi	r3,r2,1
 1205418:	9809883a 	mov	r4,r19
 120541c:	d8c00615 	stw	r3,24(sp)
 1205420:	1cc00007 	ldb	r19,0(r3)
 1205424:	188bc83a 	sub	r5,r3,r2
 1205428:	18c00044 	addi	r3,r3,1
 120542c:	993ffb26 	beq	r19,r4,120541c <__alt_mem_instruction_tcm+0xff20541c>
 1205430:	98bff3c4 	addi	r2,r19,-49
 1205434:	00c00204 	movi	r3,8
 1205438:	1881ee36 	bltu	r3,r2,1205bf4 <_strtod_r+0xddc>
 120543c:	dc800617 	ldw	r18,24(sp)
 1205440:	9cfff404 	addi	r19,r19,-48
 1205444:	2a000044 	addi	r8,r5,1
 1205448:	9009883a 	mov	r4,r18
 120544c:	07000044 	movi	fp,1
 1205450:	b88002a4 	muli	r2,r23,10
 1205454:	000b883a 	mov	r5,zero
 1205458:	98af883a 	add	r23,r19,r2
 120545c:	0001a806 	br	1205b00 <_strtod_r+0xce8>
 1205460:	d9000e17 	ldw	r4,56(sp)
 1205464:	e463c83a 	sub	r17,fp,r17
 1205468:	2463883a 	add	r17,r4,r17
 120546c:	0442670e 	bge	zero,r17,1205e0c <_strtod_r+0xff4>
 1205470:	888003cc 	andi	r2,r17,15
